	.file	"misc.c"
	.text
.Ltext0:
#APP
	.section .text.asm.src/util.c.66
	  .global trampoline_checkirqs
trampoline_checkirqs:
  rep ; nop
  lretw
	.section .text.asm.src/smp.c.66
	  .global smp_ap_boot_code
smp_ap_boot_code:
  movw $0xf000, %ax
  movw %ax, %ds
  movl $smp_mtrr, %esi
  movl smp_mtrr_count, %ebx
1:testl %ebx, %ebx
  jz 2f
  movl 0(%esi), %ecx
  movl 4(%esi), %eax
  movl 8(%esi), %edx
  wrmsr
  addl $12, %esi
  decl %ebx
  jmp 1b
2:
  lock incl CountCPUs
1:hlt
  jmp 1b

#NO_APP
	.section	.text.handle_12,"ax",@progbits
.globl handle_12
	.type	handle_12, @function
handle_12:
.LFB73:
	.file 1 "src/misc.c"
	.loc 1 28 0
	.cfi_startproc
.LVL0:
	.loc 1 30 0
	movl	$64, %edx
#APP
# 30 "src/misc.c" 1
	movw %dx, %ES
# 0 "" 2
#NO_APP
.LBB6974:
#APP
# 30 "src/misc.c" 1
	movw %ES:19, %dx
# 0 "" 2
.LVL1:
#NO_APP
.LBE6974:
	movw	%dx, 28(%eax)
	.loc 1 31 0
	ret
	.cfi_endproc
.LFE73:
	.size	handle_12, .-handle_12
	.section	.text.handle_11,"ax",@progbits
.globl handle_11
	.type	handle_11, @function
handle_11:
.LFB74:
	.loc 1 36 0
	.cfi_startproc
.LVL2:
	.loc 1 38 0
	movl	$64, %edx
#APP
# 38 "src/misc.c" 1
	movw %dx, %ES
# 0 "" 2
#NO_APP
.LBB6975:
#APP
# 38 "src/misc.c" 1
	movw %ES:16, %dx
# 0 "" 2
.LVL3:
#NO_APP
.LBE6975:
	movw	%dx, 28(%eax)
	.loc 1 39 0
	ret
	.cfi_endproc
.LFE74:
	.size	handle_11, .-handle_11
	.section	.text.handle_10,"ax",@progbits
.globl handle_10
	.type	handle_10, @function
handle_10:
.LFB76:
	.loc 1 51 0
	.cfi_startproc
.LVL4:
	.loc 1 54 0
	ret
	.cfi_endproc
.LFE76:
	.size	handle_10, .-handle_10
	.section	.text.handle_02,"ax",@progbits
.globl handle_02
	.type	handle_02, @function
handle_02:
.LFB77:
	.loc 1 59 0
	.cfi_startproc
	.loc 1 59 0
	movl	$__func__.2037, %ecx
.LVL5:
.LBB6976:
.LBB6977:
.LBB6978:
.LBB6979:
.LBB6980:
.LBB6981:
.LBB6982:
.LBB6983:
.LBB6984:
	.file 2 "src/ioport.h"
	.loc 2 82 0
	movl	$1026, %edx
.LVL6:
.L9:
.LBE6984:
.LBE6983:
.LBE6982:
.LBE6981:
.LBE6980:
.LBB6989:
	.file 3 "src/output.c"
	.loc 3 161 0
#APP
# 161 "src/output.c" 1
	movb %CS:(%ecx), %al
# 0 "" 2
#NO_APP
.LBE6989:
	.loc 3 162 0
	testb	%al, %al
	je	.L8
.LBB6990:
.LBB6988:
.LBB6987:
.LBB6986:
.LBB6985:
	.loc 2 82 0
#APP
# 82 "src/ioport.h" 1
	outb %al, %dx
# 0 "" 2
#NO_APP
.LBE6985:
.LBE6986:
.LBE6987:
.LBE6988:
.LBE6990:
.LBE6979:
	.loc 3 160 0
	incl	%ecx
	jmp	.L9
.L8:
.LBE6978:
.LBE6977:
.LBB6991:
.LBB6992:
.LBB6993:
.LBB6994:
.LBB6995:
	.loc 2 82 0
	movl	$1026, %edx
	movb	$10, %al
.LVL7:
#APP
# 82 "src/ioport.h" 1
	outb %al, %dx
# 0 "" 2
#NO_APP
.LBE6995:
.LBE6994:
.LBE6993:
.LBE6992:
.LBE6991:
.LBE6976:
	.loc 1 61 0
	ret
	.cfi_endproc
.LFE77:
	.size	handle_02, .-handle_02
	.section	.text.handle_75,"ax",@progbits
.globl handle_75
	.type	handle_75, @function
handle_75:
.LFB79:
	.loc 1 75 0
	.cfi_startproc
	pushl	%edi
	.cfi_def_cfa_offset 8
	pushl	%esi
	.cfi_def_cfa_offset 12
	pushl	%ebx
	.cfi_def_cfa_offset 16
	.loc 1 75 0
	movl	$__func__.2092, %ecx
.LVL8:
.LBB6996:
.LBB6997:
.LBB6998:
.LBB6999:
.LBB7000:
.LBB7001:
.LBB7002:
.LBB7003:
.LBB7004:
	.loc 2 82 0
	movl	$1026, %edx
.LVL9:
.L14:
.LBE7004:
.LBE7003:
.LBE7002:
.LBE7001:
.LBE7000:
.LBB7009:
	.loc 3 161 0
#APP
# 161 "src/output.c" 1
	movb %CS:(%ecx), %al
# 0 "" 2
#NO_APP
.LBE7009:
	.loc 3 162 0
	testb	%al, %al
	je	.L13
	.cfi_offset 3, -16
	.cfi_offset 6, -12
	.cfi_offset 7, -8
.LBB7010:
.LBB7008:
.LBB7007:
.LBB7006:
.LBB7005:
	.loc 2 82 0
#APP
# 82 "src/ioport.h" 1
	outb %al, %dx
# 0 "" 2
#NO_APP
.LBE7005:
.LBE7006:
.LBE7007:
.LBE7008:
.LBE7010:
.LBE6999:
	.loc 3 160 0
	incl	%ecx
	jmp	.L14
.L13:
.LBE6998:
.LBE6997:
.LBB7011:
.LBB7012:
.LBB7013:
.LBB7014:
.LBB7015:
	.loc 2 82 0
	movl	$1026, %edx
	movb	$10, %al
.LVL10:
#APP
# 82 "src/ioport.h" 1
	outb %al, %dx
# 0 "" 2
#NO_APP
.LBE7015:
.LBE7014:
.LBE7013:
.LBE7012:
.LBE7011:
.LBE6996:
.LBB7016:
.LBB7017:
	.loc 2 82 0
	xorl	%eax, %eax
#APP
# 82 "src/ioport.h" 1
	outb %al, $240
# 0 "" 2
#NO_APP
.LBE7017:
.LBE7016:
.LBB7018:
.LBB7019:
.LBB7020:
	movb	$32, %al
#APP
# 82 "src/ioport.h" 1
	outb %al, $160
# 0 "" 2
#NO_APP
.LBE7020:
.LBE7019:
.LBB7021:
.LBB7022:
.LBB7023:
#APP
# 82 "src/ioport.h" 1
	outb %al, $32
# 0 "" 2
#NO_APP
.LBE7023:
.LBE7022:
.LBE7021:
.LBE7018:
	.loc 1 84 0
	xorl	%eax, %eax
.LVL11:
#APP
# 84 "src/misc.c" 1
	pushl %ebp
sti
stc
int $2
pushfl
popl %ecx
cli
cld
popl %ebp
# 0 "" 2
.LVL12:
	.loc 1 85 0
#NO_APP
	popl	%ebx
	popl	%esi
	popl	%edi
	ret
	.cfi_endproc
.LFE79:
	.size	handle_75, .-handle_75
	.section	.text.pmm_free_data.4745,"ax",@progbits
	.type	pmm_free_data.4745, @function
pmm_free_data.4745:
.LFB146:
	.file 4 "src/pmm.c"
	.loc 4 225 0
	.cfi_startproc
.LVL13:
	pushl	%edi
	.cfi_def_cfa_offset 8
	pushl	%esi
	.cfi_def_cfa_offset 12
	pushl	%ebx
	.cfi_def_cfa_offset 16
	.loc 4 225 0
	xorl	%ebx, %ebx
	.cfi_offset 3, -16
	.cfi_offset 6, -12
	.cfi_offset 7, -8
.LVL14:
.LBB7024:
.LBB7025:
.LBB7026:
.LBB7027:
.LBB7028:
	.loc 4 138 0
	xorl	%esi, %esi
.LVL15:
.L19:
#APP
# 138 "src/pmm.c" 1
	movw %si, %ES
# 0 "" 2
#NO_APP
.LBB7029:
#APP
# 138 "src/pmm.c" 1
	addr32 movl %ES:Zones(,%ebx,4), %ecx
# 0 "" 2
#NO_APP
.LBE7029:
	.loc 4 139 0
#APP
# 139 "src/pmm.c" 1
	movw %si, %ES
# 0 "" 2
#NO_APP
.LBB7030:
#APP
# 139 "src/pmm.c" 1
	addr32 movl %ES:8(%ecx), %edi
# 0 "" 2
.LVL16:
#NO_APP
.LBE7030:
	cmpl	%edi, %eax
	jb	.L17
	.loc 4 140 0
#APP
# 140 "src/pmm.c" 1
	movw %si, %ES
# 0 "" 2
#NO_APP
.LBB7031:
#APP
# 140 "src/pmm.c" 1
	addr32 movl %ES:(%ecx), %edi
# 0 "" 2
.LVL17:
#NO_APP
.LBE7031:
	.loc 4 139 0
	cmpl	%edi, %eax
	jb	.L18
.LVL18:
.L17:
.LBE7028:
	.loc 4 137 0
	incl	%ebx
	cmpl	$5, %ebx
	jne	.L19
	jmp	.L20
.LVL19:
.L18:
.LBE7027:
.LBE7026:
	.loc 4 151 0
	testl	%ecx, %ecx
	je	.L20
	testl	%eax, %eax
	je	.L20
	xorl	%ebx, %ebx
.LVL20:
#APP
# 151 "src/pmm.c" 1
	movw %bx, %ES
# 0 "" 2
#NO_APP
.LBB7032:
#APP
# 151 "src/pmm.c" 1
	addr32 movl %ES:8(%ecx), %esi
# 0 "" 2
.LVL21:
#NO_APP
.LBE7032:
	cmpl	%eax, %esi
	jne	.L20
	.loc 4 153 0
#APP
# 153 "src/pmm.c" 1
	movw %bx, %ES
# 0 "" 2
# 153 "src/pmm.c" 1
	addr32 movl %edx, %ES:8(%ecx)
# 0 "" 2
#NO_APP
	jmp	.L26
.LVL22:
.L20:
.LBE7025:
.LBE7024:
	.loc 4 231 0
	xorl	%ecx, %ecx
.LVL23:
#APP
# 231 "src/pmm.c" 1
	movw %cx, %ES
# 0 "" 2
#NO_APP
.LBB7033:
#APP
# 231 "src/pmm.c" 1
	addr32 movl %ES:PMMAllocs, %ecx
# 0 "" 2
.LVL24:
#NO_APP
.LBE7033:
	.loc 4 232 0
	xorl	%ebx, %ebx
.LVL25:
	.loc 4 231 0
	jmp	.L22
.LVL26:
.L25:
	.loc 4 232 0
	xorl	%esi, %esi
.LVL27:
#APP
# 232 "src/pmm.c" 1
	movw %bx, %ES
# 0 "" 2
#NO_APP
.LBB7034:
#APP
# 232 "src/pmm.c" 1
	addr32 movl %ES:4(%ecx), %edi
# 0 "" 2
.LVL28:
#NO_APP
.LBE7034:
	cmpl	%eax, %edi
	jne	.L23
	.loc 4 233 0
#APP
# 233 "src/pmm.c" 1
	movw %si, %ES
# 0 "" 2
# 233 "src/pmm.c" 1
	addr32 movl %edx, %ES:4(%ecx)
# 0 "" 2
	.loc 4 234 0
#NO_APP
	jmp	.L26
.L23:
	.loc 4 235 0
#APP
# 235 "src/pmm.c" 1
	movw %bx, %ES
# 0 "" 2
#NO_APP
.LBB7035:
#APP
# 235 "src/pmm.c" 1
	addr32 movl %ES:12(%ecx), %edi
# 0 "" 2
.LVL29:
#NO_APP
.LBE7035:
	cmpl	%eax, %edi
	jne	.L24
	.loc 4 236 0
#APP
# 236 "src/pmm.c" 1
	movw %si, %ES
# 0 "" 2
# 236 "src/pmm.c" 1
	addr32 movl %edx, %ES:12(%ecx)
# 0 "" 2
	.loc 4 237 0
#NO_APP
	jmp	.L26
.L24:
	.loc 4 231 0
#APP
# 231 "src/pmm.c" 1
	movw %bx, %ES
# 0 "" 2
#NO_APP
.LBB7036:
#APP
# 231 "src/pmm.c" 1
	addr32 movl %ES:16(%ecx), %ecx
# 0 "" 2
.LVL30:
#NO_APP
.L22:
.LBE7036:
	testl	%ecx, %ecx
	jne	.L25
.LVL31:
.L26:
	.loc 4 239 0
	popl	%ebx
	popl	%esi
.LVL32:
	popl	%edi
.LVL33:
	ret
	.cfi_endproc
.LFE146:
	.size	pmm_free_data.4745, .-pmm_free_data.4745
	.section	.text.pmm_free.1834,"ax",@progbits
	.type	pmm_free.1834, @function
pmm_free.1834:
.LFB147:
	.loc 4 244 0
	.cfi_startproc
.LVL34:
	pushl	%edi
	.cfi_def_cfa_offset 8
	pushl	%esi
	.cfi_def_cfa_offset 12
	pushl	%ebx
	.cfi_def_cfa_offset 16
	.loc 4 244 0
	movl	$PMMAllocs, %ecx
.LVL35:
.LBB7037:
	.loc 4 247 0
	xorl	%esi, %esi
	.cfi_offset 3, -16
	.cfi_offset 6, -12
	.cfi_offset 7, -8
.LVL36:
.L32:
	xorl	%edx, %edx
#APP
# 247 "src/pmm.c" 1
	movw %si, %ES
# 0 "" 2
#NO_APP
.LBB7038:
#APP
# 247 "src/pmm.c" 1
	addr32 movl %ES:(%ecx), %ebx
# 0 "" 2
#NO_APP
.LBE7038:
	.loc 4 248 0
	testl	%ebx, %ebx
	je	.L29
	.loc 4 250 0
#APP
# 250 "src/pmm.c" 1
	movw %si, %ES
# 0 "" 2
#NO_APP
.LBB7039:
#APP
# 250 "src/pmm.c" 1
	addr32 movl %ES:(%ebx), %edi
# 0 "" 2
#NO_APP
.LBE7039:
	cmpl	%eax, %edi
	jne	.L30
.LBB7040:
	.loc 4 251 0
#APP
# 251 "src/pmm.c" 1
	movw %dx, %ES
# 0 "" 2
#NO_APP
.LBB7041:
#APP
# 251 "src/pmm.c" 1
	addr32 movl %ES:16(%ebx), %esi
# 0 "" 2
.LVL37:
#NO_APP
.LBE7041:
#APP
# 251 "src/pmm.c" 1
	addr32 movl %esi, %ES:(%ecx)
# 0 "" 2
	.loc 4 252 0
# 252 "src/pmm.c" 1
	movw %dx, %ES
# 0 "" 2
#NO_APP
.LBB7042:
#APP
# 252 "src/pmm.c" 1
	addr32 movl %ES:12(%ebx), %esi
# 0 "" 2
.LVL38:
#NO_APP
.LBE7042:
	.loc 4 253 0
#APP
# 253 "src/pmm.c" 1
	movw %dx, %ES
# 0 "" 2
#NO_APP
.LBB7043:
#APP
# 253 "src/pmm.c" 1
	addr32 movl %ES:4(%ebx), %edx
# 0 "" 2
.LVL39:
#NO_APP
.LBE7043:
	.loc 4 254 0
	call	pmm_free_data.4745
.LVL40:
	.loc 4 255 0
	movl	%esi, %edx
	movl	%ebx, %eax
	call	pmm_free_data.4745
	xorl	%eax, %eax
	.loc 4 258 0
	jmp	.L31
.LVL41:
.L30:
.LBE7040:
	.loc 4 260 0
	leal	16(%ebx), %ecx
.LBE7037:
	.loc 4 261 0
	jmp	.L32
.L29:
	orl	$-1, %eax
.LVL42:
.L31:
	.loc 4 262 0
	popl	%ebx
.LVL43:
	popl	%esi
.LVL44:
	popl	%edi
.LVL45:
	ret
	.cfi_endproc
.LFE147:
	.size	pmm_free.1834, .-pmm_free.1834
	.section	.text.floppy_pio.17134,"ax",@progbits
	.type	floppy_pio.17134, @function
floppy_pio.17134:
.LFB573:
	.file 5 "src/floppy.c"
	.loc 5 224 0
	.cfi_startproc
.LVL46:
	pushl	%ebp
	.cfi_def_cfa_offset 8
	pushl	%edi
	.cfi_def_cfa_offset 12
	pushl	%esi
	.cfi_def_cfa_offset 16
	pushl	%ebx
	.cfi_def_cfa_offset 20
	subl	$4, %esp
	.cfi_def_cfa_offset 24
	movl	%eax, %ebx
	.cfi_offset 3, -20
	.cfi_offset 6, -16
	.cfi_offset 7, -12
	.cfi_offset 5, -8
	movb	%dl, 3(%esp)
	.loc 5 224 0
	movzbl	1(%eax), %esi
	andl	$1, %esi
.LVL47:
.LBB7044:
.LBB7045:
.LBB7046:
	.loc 5 200 0
	movl	$64, %ecx
#APP
# 200 "src/floppy.c" 1
	movw %cx, %ES
# 0 "" 2
#NO_APP
.LBB7047:
#APP
# 200 "src/floppy.c" 1
	movb %ES:62, %al
# 0 "" 2
.LVL48:
#NO_APP
.LBE7047:
.LBB7048:
	andl	$127, %eax
.LVL49:
#APP
# 200 "src/floppy.c" 1
	movb %al, %ES:62
# 0 "" 2
#NO_APP
.LBE7048:
.LBE7046:
.LBB7049:
.LBB7050:
	.loc 2 92 0
	movl	$1010, %edx
.LVL50:
#APP
# 92 "src/ioport.h" 1
	inb %dx, %al
# 0 "" 2
.LVL51:
#NO_APP
	movl	%eax, %edi
.LVL52:
.LBE7050:
.LBE7049:
	.loc 5 205 0
	movl	%esi, %eax
	cmpb	$1, %al
	sbbl	%eax, %eax
	movl	%eax, %ebp
	andl	$-16, %ebp
.LVL53:
	addl	$32, %ebp
.LVL54:
	.loc 5 207 0
	movl	%esi, %eax
	orl	$12, %eax
.LBB7051:
.LBB7052:
	.loc 2 82 0
	orl	%ebp, %eax
#APP
# 82 "src/ioport.h" 1
	outb %al, %dx
# 0 "" 2
#NO_APP
.LBE7052:
.LBE7051:
.LBB7053:
	.loc 5 212 0
#APP
# 212 "src/floppy.c" 1
	movw %cx, %ES
# 0 "" 2
#NO_APP
	movb	$37, %al
#APP
# 212 "src/floppy.c" 1
	movb %al, %ES:64
# 0 "" 2
#NO_APP
.LBE7053:
.LBB7054:
.LBB7055:
	.loc 2 92 0
	movb	$-12, %dl
.L37:
#APP
# 92 "src/ioport.h" 1
	inb %dx, %al
# 0 "" 2
.LVL55:
#NO_APP
.LBE7055:
.LBE7054:
	.loc 5 215 0
	andl	$192, %eax
.LVL56:
	addl	$-128, %eax
	jne	.L37
	.loc 5 218 0
	andl	$4, %edi
	jne	.L38
.LBB7056:
.LBB7057:
	.loc 5 182 0
	movl	$64, %ecx
.LBB7058:
	xorl	%edx, %edx
.LVL57:
.L51:
.LBE7058:
#APP
# 182 "src/floppy.c" 1
	movw %cx, %ES
# 0 "" 2
#NO_APP
.LBB7059:
#APP
# 182 "src/floppy.c" 1
	movb %ES:64(%edx), %al
# 0 "" 2
.LVL58:
#NO_APP
.LBE7059:
	testb	%al, %al
	je	.L38
	.loc 5 184 0
#APP
# 184 "src/floppy.c" 1
	movw %cx, %ES
# 0 "" 2
#NO_APP
.LBB7060:
#APP
# 184 "src/floppy.c" 1
	movb %ES:62(%edx), %al
# 0 "" 2
.LVL59:
#NO_APP
.LBE7060:
	.loc 5 185 0
	testb	%al, %al
	js	.L39
.LBB7061:
.LBB7062:
.LBB7063:
.LBB7064:
	.file 6 "src/util.c"
	.loc 6 72 0
#APP
# 72 "src/util.c" 1
	sti
nop
rep ; nop
cli
cld

# 0 "" 2
#NO_APP
	jmp	.L51
.L39:
.LBE7064:
.LBE7063:
.LBE7062:
.LBE7061:
	.loc 5 192 0
	andl	$127, %eax
.LVL60:
.LBB7065:
	.loc 5 193 0
	movl	$64, %edx
#APP
# 193 "src/floppy.c" 1
	movw %dx, %ES
# 0 "" 2
#NO_APP
	xorb	%dl, %dl
#APP
# 193 "src/floppy.c" 1
	movb %al, %ES:62(%edx)
# 0 "" 2
.LVL61:
#NO_APP
.L38:
	xorl	%ecx, %ecx
.LVL62:
.LBE7065:
.LBE7057:
.LBE7056:
.LBE7045:
.LBE7044:
.LBB7066:
.LBB7067:
	.loc 2 82 0
	movl	$1013, %edx
	jmp	.L41
.L42:
	movb	(%ebx), %al
.LVL63:
#APP
# 82 "src/ioport.h" 1
	outb %al, %dx
# 0 "" 2
#NO_APP
.LBE7067:
.LBE7066:
	.loc 5 229 0
	incl	%ecx
.LVL64:
	incl	%ebx
.LVL65:
.L41:
	cmpb	3(%esp), %cl
	jb	.L42
.LBB7068:
.LBB7069:
	.loc 5 182 0
	movl	$64, %ecx
.LVL66:
.LBB7070:
	xorl	%edx, %edx
.LVL67:
.L52:
.LBE7070:
#APP
# 182 "src/floppy.c" 1
	movw %cx, %ES
# 0 "" 2
#NO_APP
.LBB7071:
#APP
# 182 "src/floppy.c" 1
	movb %ES:64(%edx), %al
# 0 "" 2
.LVL68:
#NO_APP
.LBE7071:
	testb	%al, %al
	je	.L43
	.loc 5 184 0
#APP
# 184 "src/floppy.c" 1
	movw %cx, %ES
# 0 "" 2
#NO_APP
.LBB7072:
#APP
# 184 "src/floppy.c" 1
	movb %ES:62(%edx), %al
# 0 "" 2
.LVL69:
#NO_APP
.LBE7072:
	.loc 5 185 0
	testb	%al, %al
	js	.L44
.LBB7073:
.LBB7074:
.LBB7075:
.LBB7076:
	.loc 6 72 0
#APP
# 72 "src/util.c" 1
	sti
nop
rep ; nop
cli
cld

# 0 "" 2
#NO_APP
	jmp	.L52
.L44:
.LBE7076:
.LBE7075:
.LBE7074:
.LBE7073:
	.loc 5 192 0
	andl	$127, %eax
.LVL70:
.LBB7077:
	.loc 5 193 0
	movl	$64, %edx
#APP
# 193 "src/floppy.c" 1
	movw %dx, %ES
# 0 "" 2
#NO_APP
	xorb	%dl, %dl
#APP
# 193 "src/floppy.c" 1
	movb %al, %ES:62(%edx)
# 0 "" 2
#NO_APP
	xorl	%eax, %eax
.LVL71:
	jmp	.L46
.LVL72:
.L43:
.LBE7077:
.LBE7069:
.LBE7068:
.LBB7078:
.LBB7079:
.LBB7080:
.LBB7081:
	.loc 2 92 0
	movl	$1010, %edx
#APP
# 92 "src/ioport.h" 1
	inb %dx, %al
# 0 "" 2
.LVL73:
#NO_APP
	movb	%al, %cl
.LVL74:
.LBE7081:
.LBE7080:
.LBB7082:
.LBB7083:
	.loc 2 82 0
	movl	%ecx, %eax
.LVL75:
	andl	$251, %eax
#APP
# 82 "src/ioport.h" 1
	outb %al, %dx
# 0 "" 2
#NO_APP
.LBE7083:
.LBE7082:
.LBB7084:
.LBB7085:
	movb	%cl, %al
.LVL76:
	orl	$4, %eax
#APP
# 82 "src/ioport.h" 1
	outb %al, %dx
# 0 "" 2
#NO_APP
.LBE7085:
.LBE7084:
.LBB7086:
.LBB7087:
	.loc 2 92 0
	movb	$-12, %dl
.L47:
#APP
# 92 "src/ioport.h" 1
	inb %dx, %al
# 0 "" 2
.LVL77:
#NO_APP
.LBE7087:
.LBE7086:
	.loc 5 172 0
	andl	$192, %eax
.LVL78:
	addl	$-128, %eax
	jne	.L47
	orl	$-1, %eax
.L46:
.LBE7079:
.LBE7078:
	.loc 5 239 0
	popl	%edx
	.cfi_def_cfa_offset 20
	popl	%ebx
.LVL79:
	popl	%esi
.LVL80:
	popl	%edi
.LVL81:
	popl	%ebp
.LVL82:
	ret
	.cfi_endproc
.LFE573:
	.size	floppy_pio.17134, .-floppy_pio.17134
	.section	.text.floppy_cmd.17157,"ax",@progbits
	.type	floppy_cmd.17157, @function
floppy_cmd.17157:
.LFB574:
	.loc 5 243 0
	.cfi_startproc
.LVL83:
	pushl	%ebp
	.cfi_def_cfa_offset 8
	pushl	%edi
	.cfi_def_cfa_offset 12
	pushl	%esi
	.cfi_def_cfa_offset 16
	pushl	%ebx
	.cfi_def_cfa_offset 20
	subl	$4, %esp
	.cfi_def_cfa_offset 24
	movl	%ecx, %ebx
	.cfi_offset 3, -20
	.cfi_offset 6, -16
	.cfi_offset 7, -12
	.cfi_offset 5, -8
	movb	24(%esp), %cl
.LVL84:
	movb	%cl, 3(%esp)
	.loc 5 245 0
	movl	8(%eax), %ecx
.LVL85:
	.loc 5 248 0
	leal	-1(%edx), %esi
.LVL86:
	.loc 5 250 0
	movl	%ecx, %ebp
	shrl	$16, %ebp
	movzwl	%si, %edx
.LVL87:
	addl	%ecx, %edx
.LVL88:
	shrl	$16, %edx
	movl	$9, %eax
.LVL89:
	cmpl	%edx, %ebp
	jne	.L55
	.loc 5 254 0
	cmpb	$-26, (%ebx)
	setne	%dl
	leal	70(,%edx,4), %edx
.LBB7088:
.LBB7089:
	.loc 2 82 0
	movb	$6, %al
#APP
# 82 "src/ioport.h" 1
	outb %al, $10
# 0 "" 2
#NO_APP
.LBE7089:
.LBE7088:
.LBB7090:
.LBB7091:
	xorl	%edi, %edi
	movl	%edi, %eax
#APP
# 82 "src/ioport.h" 1
	outb %al, $12
# 0 "" 2
#NO_APP
.LBE7091:
.LBE7090:
.LBB7092:
.LBB7093:
	movb	%cl, %al
.LVL90:
#APP
# 82 "src/ioport.h" 1
	outb %al, $4
# 0 "" 2
#NO_APP
.LBE7093:
.LBE7092:
.LBB7094:
.LBB7095:
	movl	%ecx, %eax
.LVL91:
	shrl	$8, %eax
#APP
# 82 "src/ioport.h" 1
	outb %al, $4
# 0 "" 2
#NO_APP
.LBE7095:
.LBE7094:
.LBB7096:
.LBB7097:
	movl	%edi, %eax
#APP
# 82 "src/ioport.h" 1
	outb %al, $12
# 0 "" 2
#NO_APP
.LBE7097:
.LBE7096:
.LBB7098:
.LBB7099:
	movl	%esi, %eax
#APP
# 82 "src/ioport.h" 1
	outb %al, $5
# 0 "" 2
#NO_APP
.LBE7099:
.LBE7098:
.LBB7100:
.LBB7101:
	movl	%esi, %eax
.LVL92:
	shrw	$8, %ax
#APP
# 82 "src/ioport.h" 1
	outb %al, $5
# 0 "" 2
#NO_APP
.LBE7101:
.LBE7100:
.LBB7102:
.LBB7103:
	movb	%dl, %al
#APP
# 82 "src/ioport.h" 1
	outb %al, $11
# 0 "" 2
#NO_APP
.LBE7103:
.LBE7102:
.LBB7104:
.LBB7105:
	movl	%ebp, %eax
#APP
# 82 "src/ioport.h" 1
	outb %al, $129
# 0 "" 2
#NO_APP
.LBE7105:
.LBE7104:
.LBB7106:
.LBB7107:
	movb	$2, %al
#APP
# 82 "src/ioport.h" 1
	outb %al, $10
# 0 "" 2
#NO_APP
.LBE7107:
.LBE7106:
	.loc 5 276 0
	movzbl	3(%esp), %edx
.LVL93:
	movl	%ebx, %eax
	call	floppy_pio.17134
.LVL94:
	movl	%eax, %edx
.LVL95:
	.loc 5 277 0
	movl	$128, %eax
	testl	%edx, %edx
	jne	.L55
.LBB7108:
.LBB7109:
	.loc 2 92 0
	movl	$1012, %edx
.LVL96:
#APP
# 92 "src/ioport.h" 1
	inb %dx, %al
# 0 "" 2
.LVL97:
#NO_APP
.LBE7109:
.LBE7108:
	.loc 5 281 0
	movl	%eax, %edx
.LVL98:
	andl	$192, %edx
	movl	$32, %eax
	cmpl	$192, %edx
	jne	.L55
	xorl	%ecx, %ecx
.LBB7110:
.LBB7111:
.LBB7112:
	.loc 2 92 0
	movl	$1013, %edx
.LBE7112:
.LBE7111:
.LBB7114:
	.loc 5 289 0
	movl	$64, %esi
.LVL99:
.L60:
.LBE7114:
.LBB7115:
.LBB7113:
	.loc 2 92 0
#APP
# 92 "src/ioport.h" 1
	inb %dx, %al
# 0 "" 2
.LVL100:
#NO_APP
.LBE7113:
.LBE7115:
	.loc 5 288 0
	movb	%al, (%ebx,%ecx)
.LBB7116:
	.loc 5 289 0
#APP
# 289 "src/floppy.c" 1
	movw %si, %ES
# 0 "" 2
# 289 "src/floppy.c" 1
	movb %al, %ES:66(%ecx)
# 0 "" 2
#NO_APP
	incl	%ecx
.LBE7116:
.LBE7110:
	.loc 5 286 0
	cmpl	$7, %ecx
	jne	.L60
	xorl	%eax, %eax
.LVL101:
.L55:
	.loc 5 293 0
	popl	%ecx
	.cfi_def_cfa_offset 20
.LVL102:
	popl	%ebx
.LVL103:
	popl	%esi
.LVL104:
	popl	%edi
	popl	%ebp
	ret	$4
	.cfi_endproc
.LFE574:
	.size	floppy_cmd.17157, .-floppy_cmd.17157
	.section	.text.check_recal_drive.17439,"ax",@progbits
	.type	check_recal_drive.17439, @function
check_recal_drive.17439:
.LFB578:
	.loc 5 363 0
	.cfi_startproc
.LVL105:
	pushl	%edi
	.cfi_def_cfa_offset 8
	pushl	%esi
	.cfi_def_cfa_offset 12
	pushl	%ebx
	.cfi_def_cfa_offset 16
	subl	$12, %esp
	.cfi_def_cfa_offset 28
	movl	%eax, %ebx
	.cfi_offset 3, -16
	.cfi_offset 6, -12
	.cfi_offset 7, -8
.LBB7117:
	.loc 5 364 0
#APP
# 364 "src/floppy.c" 1
	movl %CS:20(%eax), %eax
# 0 "" 2
.LVL106:
#NO_APP
.LBE7117:
	.loc 5 365 0
	movl	$64, %edx
#APP
# 365 "src/floppy.c" 1
	movw %dx, %ES
# 0 "" 2
#NO_APP
.LBB7118:
#APP
# 365 "src/floppy.c" 1
	movb %ES:62, %cl
# 0 "" 2
.LVL107:
#NO_APP
.LBE7118:
	movzbl	%al, %esi
.LVL108:
	movzbl	%cl, %ecx
.LVL109:
	btl	%esi, %ecx
	jnc	.L64
	.loc 5 366 0
#APP
# 366 "src/floppy.c" 1
	movw %dx, %ES
# 0 "" 2
#NO_APP
.LBB7119:
#APP
# 366 "src/floppy.c" 1
	movb %ES:144(%esi), %dl
# 0 "" 2
.LVL110:
#NO_APP
.LBE7119:
	.loc 5 365 0
	andb	$16, %dl
	jne	.L65
.L64:
.LBB7120:
.LBB7121:
	.loc 5 311 0
	movb	$7, (%esp)
	.loc 5 312 0
	movb	%al, 1(%esp)
	.loc 5 313 0
	movl	%esp, %eax
.LVL111:
	movl	$2, %edx
.LVL112:
	call	floppy_pio.17134
.LVL113:
.LBB7122:
	.loc 5 315 0
	movl	$64, %eax
#APP
# 315 "src/floppy.c" 1
	movw %ax, %ES
# 0 "" 2
#NO_APP
.LBB7123:
#APP
# 315 "src/floppy.c" 1
	movb %ES:62, %dl
# 0 "" 2
.LVL114:
#NO_APP
.LBE7123:
.LBB7124:
	movl	$1, %edi
	movl	%esi, %ecx
	sall	%cl, %edi
	orl	%edi, %edx
.LVL115:
#APP
# 315 "src/floppy.c" 1
	movb %dl, %ES:62
# 0 "" 2
#NO_APP
.LBE7124:
.LBE7122:
.LBB7125:
.LBB7126:
	.loc 5 303 0
#APP
# 303 "src/floppy.c" 1
	movw %ax, %ES
# 0 "" 2
#NO_APP
	xorl	%edx, %edx
.LVL116:
#APP
# 303 "src/floppy.c" 1
	movb %dl, %ES:148(%esi)
# 0 "" 2
#NO_APP
.LBE7126:
.LBE7125:
.LBE7121:
.LBE7120:
.LBB7127:
.LBB7128:
.LBB7129:
	.loc 5 353 0
#APP
# 353 "src/floppy.c" 1
	movb %CS:1(%ebx), %dl
# 0 "" 2
.LVL117:
#NO_APP
.LBE7129:
.LBB7130:
.LBB7131:
	.loc 5 354 0
	movzbl	%dl, %edx
.LVL118:
#APP
# 354 "src/floppy.c" 1
	movb %CS:FloppyInfo+6(,%edx,8), %cl
# 0 "" 2
.LVL119:
#NO_APP
.LBE7131:
#APP
# 354 "src/floppy.c" 1
	movw %ax, %ES
# 0 "" 2
# 354 "src/floppy.c" 1
	movb %cl, %ES:139
# 0 "" 2
#NO_APP
.LBE7130:
.LBB7132:
	.loc 5 355 0
#APP
# 355 "src/floppy.c" 1
	movl %CS:20(%ebx), %ecx
# 0 "" 2
.LVL120:
#NO_APP
.LBE7132:
.LBB7133:
.LBB7134:
	.loc 5 356 0
#APP
# 356 "src/floppy.c" 1
	movb %CS:FloppyInfo+7(,%edx,8), %dl
# 0 "" 2
.LVL121:
#NO_APP
.LBE7134:
#APP
# 356 "src/floppy.c" 1
	movw %ax, %ES
# 0 "" 2
#NO_APP
	movzbl	%cl, %eax
#APP
# 356 "src/floppy.c" 1
	movb %dl, %ES:144(%eax)
# 0 "" 2
.LVL122:
#NO_APP
.L65:
.LBE7133:
.LBE7128:
.LBE7127:
	.loc 5 375 0
	xorl	%eax, %eax
.LVL123:
	addl	$12, %esp
	popl	%ebx
.LVL124:
	popl	%esi
	popl	%edi
	ret
	.cfi_endproc
.LFE578:
	.size	check_recal_drive.17439, .-check_recal_drive.17439
	.section	.text.lba2chs.17521,"ax",@progbits
	.type	lba2chs.17521, @function
lba2chs.17521:
.LFB579:
	.loc 5 384 0
	.cfi_startproc
.LVL125:
	pushl	%edi
	.cfi_def_cfa_offset 8
	pushl	%esi
	.cfi_def_cfa_offset 12
	pushl	%ebx
	.cfi_def_cfa_offset 16
	movl	%eax, %ebx
	.cfi_offset 3, -16
	.cfi_offset 6, -12
	.cfi_offset 7, -8
	movl	%edx, %esi
	.loc 5 387 0
	movl	(%eax), %eax
.LVL126:
	incl	%eax
.LVL127:
.LBB7135:
	.loc 5 388 0
	movl	12(%ebx), %edx
.LVL128:
#APP
# 388 "src/floppy.c" 1
	movw %CS:6(%edx), %di
# 0 "" 2
.LVL129:
#NO_APP
.LBE7135:
	.loc 5 389 0
	movzwl	%di, %edi
.LVL130:
	xorl	%edx, %edx
	divl	%edi
.LVL131:
	movb	%dl, (%ecx)
.LBB7136:
	.loc 5 392 0
	movl	12(%ebx), %edx
#APP
# 392 "src/floppy.c" 1
	movw %CS:2(%edx), %dx
# 0 "" 2
.LVL132:
#NO_APP
.LBE7136:
	.loc 5 393 0
	movzwl	%dx, %edx
.LVL133:
	movl	%edx, %ecx
.LVL134:
	xorl	%edx, %edx
	divl	%ecx
	movl	16(%esp), %ecx
	movb	%dl, (%ecx)
	.loc 5 396 0
	movb	%al, (%esi)
	.loc 5 397 0
	popl	%ebx
.LVL135:
	popl	%esi
.LVL136:
	popl	%edi
	ret	$4
	.cfi_endproc
.LFE579:
	.size	lba2chs.17521, .-lba2chs.17521
	.section	.text.process_floppy_op.1223,"ax",@progbits
	.type	process_floppy_op.1223, @function
process_floppy_op.1223:
.LFB585:
	.loc 5 549 0
	.cfi_startproc
.LVL137:
	pushl	%edi
	.cfi_def_cfa_offset 8
	pushl	%esi
	.cfi_def_cfa_offset 12
	pushl	%ebx
	.cfi_def_cfa_offset 16
	subl	$16, %esp
	.cfi_def_cfa_offset 32
	movl	%eax, %esi
	.cfi_offset 3, -16
	.cfi_offset 6, -12
	.cfi_offset 7, -8
	.loc 5 553 0
	movb	18(%eax), %al
.LVL138:
	cmpb	$3, %al
	je	.L73
	ja	.L76
	testb	%al, %al
	je	.L71
	cmpb	$2, %al
	jne	.L70
	jmp	.L90
.L76:
	cmpb	$4, %al
	je	.L74
	cmpb	$5, %al
	jne	.L70
	jmp	.L91
.L71:
.LBB7162:
.LBB7163:
.LBB7164:
	.loc 5 403 0
	movl	12(%esi), %edx
#APP
# 403 "src/floppy.c" 1
	movl %CS:20(%edx), %edx
# 0 "" 2
.LVL139:
#NO_APP
.LBE7164:
	.loc 5 404 0
	movzbl	%dl, %edx
.LVL140:
.LBB7165:
.LBB7166:
	.loc 5 303 0
	movl	$64, %ecx
#APP
# 303 "src/floppy.c" 1
	movw %cx, %ES
# 0 "" 2
# 303 "src/floppy.c" 1
	movb %al, %ES:148(%edx)
# 0 "" 2
#NO_APP
	xorl	%ebx, %ebx
.LVL141:
.LBE7166:
.LBE7165:
.LBE7163:
.LBE7162:
	.loc 5 555 0
	jmp	.L77
.LVL142:
.L90:
.LBB7167:
.LBB7168:
	.loc 5 412 0
	movl	12(%esi), %eax
	call	check_recal_drive.17439
	movl	%eax, %ebx
.LVL143:
	.loc 5 413 0
	testl	%eax, %eax
	jne	.L83
.LVL144:
	.loc 5 417 0
	leal	14(%esp), %ecx
	leal	13(%esp), %edx
	leal	15(%esp), %eax
.LVL145:
	pushl	%eax
	.cfi_def_cfa_offset 36
	movl	%esi, %eax
	.cfi_escape 0x2e,0x4
	call	lba2chs.17521
	.cfi_def_cfa_offset 32
.LBB7169:
	.loc 5 420 0
	movl	12(%esi), %eax
#APP
# 420 "src/floppy.c" 1
	movl %CS:20(%eax), %edi
# 0 "" 2
.LVL146:
#NO_APP
.LBE7169:
	.loc 5 422 0
	movb	$-26, 1(%esp)
	.loc 5 423 0
	movb	15(%esp), %dl
.LVL147:
	leal	0(,%edx,4), %eax
	orl	%edi, %eax
.LVL148:
	movb	%al, 2(%esp)
	.loc 5 424 0
	movb	13(%esp), %al
.LVL149:
	movb	%al, 3(%esp)
	.loc 5 425 0
	movb	%dl, 4(%esp)
	.loc 5 426 0
	movb	14(%esp), %al
.LVL150:
	movb	%al, 5(%esp)
	.loc 5 427 0
	movb	$2, 6(%esp)
	.loc 5 428 0
	movl	16(%esi), %edx
	leal	-1(%eax,%edx), %eax
	movb	%al, 7(%esp)
	.loc 5 429 0
	movb	$27, 8(%esp)
	.loc 5 430 0
	movb	$-1, 9(%esp)
	.loc 5 432 0
	leal	1(%esp), %ecx
	sall	$9, %edx
	movzwl	%dx, %edx
	pushl	$9
	.cfi_def_cfa_offset 36
	movl	%esi, %eax
	call	floppy_cmd.17157
	.cfi_def_cfa_offset 32
	movl	%eax, %ebx
	.loc 5 433 0
	testl	%eax, %eax
	jne	.L83
.LVL151:
	.loc 5 436 0
	testb	$-64, 1(%esp)
	jne	.L79
	.loc 5 442 0
	andl	$255, %edi
.LVL152:
.LBB7170:
.LBB7171:
	.loc 5 303 0
	movl	$64, %eax
.LVL153:
#APP
# 303 "src/floppy.c" 1
	movw %ax, %ES
# 0 "" 2
#NO_APP
	movb	13(%esp), %al
	jmp	.L87
.LVL154:
.L79:
	movl	$32, %ebx
.LVL155:
.L78:
	jmp	.L83
.LVL156:
.L73:
.LBE7171:
.LBE7170:
.LBE7168:
.LBE7167:
.LBB7172:
.LBB7173:
	.loc 5 453 0
	movl	12(%esi), %eax
	.cfi_escape 0x2e,0x0
	call	check_recal_drive.17439
	movl	%eax, %ebx
.LVL157:
	.loc 5 454 0
	testl	%eax, %eax
	jne	.L83
.LVL158:
	.loc 5 458 0
	leal	14(%esp), %ecx
	leal	15(%esp), %edx
	leal	13(%esp), %eax
.LVL159:
	pushl	%eax
	.cfi_def_cfa_offset 36
	movl	%esi, %eax
	.cfi_escape 0x2e,0x4
	call	lba2chs.17521
	.cfi_def_cfa_offset 32
.LBB7174:
	.loc 5 461 0
	movl	12(%esi), %eax
#APP
# 461 "src/floppy.c" 1
	movl %CS:20(%eax), %edi
# 0 "" 2
.LVL160:
#NO_APP
.LBE7174:
	.loc 5 463 0
	movb	$-59, 1(%esp)
	.loc 5 464 0
	movb	13(%esp), %dl
.LVL161:
	leal	0(,%edx,4), %eax
	orl	%edi, %eax
.LVL162:
	movb	%al, 2(%esp)
	.loc 5 465 0
	movb	15(%esp), %al
.LVL163:
	movb	%al, 3(%esp)
	.loc 5 466 0
	movb	%dl, 4(%esp)
	.loc 5 467 0
	movb	14(%esp), %al
.LVL164:
	movb	%al, 5(%esp)
	.loc 5 468 0
	movb	$2, 6(%esp)
	.loc 5 469 0
	movl	16(%esi), %edx
	leal	-1(%eax,%edx), %eax
	movb	%al, 7(%esp)
	.loc 5 470 0
	movb	$27, 8(%esp)
	.loc 5 471 0
	movb	$-1, 9(%esp)
	.loc 5 473 0
	leal	1(%esp), %ecx
	sall	$9, %edx
	movzwl	%dx, %edx
	pushl	$9
	.cfi_def_cfa_offset 36
	movl	%esi, %eax
	call	floppy_cmd.17157
	.cfi_def_cfa_offset 32
	movl	%eax, %ebx
	.loc 5 474 0
	testl	%eax, %eax
	jne	.L83
.LVL165:
	.loc 5 477 0
	testb	$-64, 1(%esp)
	je	.L81
	.loc 5 478 0
	movzbl	2(%esp), %eax
.LVL166:
	andl	$2, %eax
	cmpl	$1, %eax
	sbbl	%ebx, %ebx
	andl	$29, %ebx
	addl	$3, %ebx
	jmp	.L83
.LVL167:
.L81:
	.loc 5 486 0
	andl	$255, %edi
.LVL168:
.LBB7175:
.LBB7176:
	.loc 5 303 0
	movl	$64, %eax
.LVL169:
#APP
# 303 "src/floppy.c" 1
	movw %ax, %ES
# 0 "" 2
#NO_APP
	movb	15(%esp), %al
.LVL170:
.L87:
#APP
# 303 "src/floppy.c" 1
	movb %al, %ES:148(%edi)
# 0 "" 2
#NO_APP
	jmp	.L77
.L80:
.LVL171:
.L74:
.LBE7176:
.LBE7175:
.LBE7173:
.LBE7172:
.LBB7177:
.LBB7178:
	.loc 5 497 0
	movl	12(%esi), %eax
	.cfi_escape 0x2e,0x0
	call	check_recal_drive.17439
	movl	%eax, %ebx
.LVL172:
	.loc 5 498 0
	testl	%eax, %eax
	jne	.L83
.LVL173:
	.loc 5 502 0
	leal	14(%esp), %ecx
	leal	15(%esp), %edx
	leal	13(%esp), %eax
.LVL174:
	pushl	%eax
	.cfi_def_cfa_offset 36
	movl	%esi, %eax
	.cfi_escape 0x2e,0x4
	call	lba2chs.17521
	.cfi_def_cfa_offset 32
.LBB7179:
	.loc 5 505 0
	movl	12(%esi), %eax
#APP
# 505 "src/floppy.c" 1
	movl %CS:20(%eax), %eax
# 0 "" 2
.LVL175:
#NO_APP
.LBE7179:
	.loc 5 506 0
	movzbl	%al, %eax
.LVL176:
.LBB7180:
.LBB7181:
	.loc 5 303 0
	movl	$64, %edx
#APP
# 303 "src/floppy.c" 1
	movw %dx, %ES
# 0 "" 2
#NO_APP
	movb	15(%esp), %dl
.LVL177:
#APP
# 303 "src/floppy.c" 1
	movb %dl, %ES:148(%ebx,%eax)
# 0 "" 2
#NO_APP
	jmp	.L77
.LVL178:
.L83:
.LBE7181:
.LBE7180:
	.loc 5 509 0
	movw	$0, 16(%esi)
	jmp	.L77
.LVL179:
.L91:
.LBE7178:
.LBE7177:
.LBB7182:
.LBB7183:
	.loc 5 517 0
	movl	12(%esi), %eax
	.cfi_escape 0x2e,0x0
	call	check_recal_drive.17439
	movl	%eax, %ebx
.LVL180:
	.loc 5 518 0
	testl	%eax, %eax
	jne	.L77
.LVL181:
	.loc 5 521 0
	movb	(%esi), %al
.LVL182:
.LBB7184:
	.loc 5 524 0
	movl	12(%esi), %edx
#APP
# 524 "src/floppy.c" 1
	movl %CS:20(%edx), %edi
# 0 "" 2
.LVL183:
#NO_APP
.LBE7184:
	.loc 5 526 0
	movb	$77, 1(%esp)
	.loc 5 527 0
	sall	$2, %eax
.LVL184:
	orl	%edi, %eax
.LVL185:
	movb	%al, 2(%esp)
	.loc 5 528 0
	movb	$2, 3(%esp)
	.loc 5 529 0
	movl	16(%esi), %edx
	movb	%dl, 4(%esp)
	.loc 5 530 0
	movb	$108, 5(%esp)
	.loc 5 531 0
	movb	$-10, 6(%esp)
	.loc 5 533 0
	leal	1(%esp), %ecx
	sall	$2, %edx
	movzwl	%dx, %edx
	pushl	$6
	.cfi_def_cfa_offset 36
	movl	%esi, %eax
	.cfi_escape 0x2e,0x4
	call	floppy_cmd.17157
	.cfi_def_cfa_offset 32
	movl	%eax, %ebx
	.loc 5 534 0
	testl	%eax, %eax
	jne	.L77
.LVL186:
	.loc 5 537 0
	movb	1(%esp), %al
.LVL187:
	andb	$-64, %al
	je	.L84
	.loc 5 538 0
	movzbl	2(%esp), %eax
	andl	$2, %eax
	cmpl	$1, %eax
	sbbl	%ebx, %ebx
	andl	$29, %ebx
	addl	$3, %ebx
	jmp	.L77
.L84:
	.loc 5 543 0
	andl	$255, %edi
.LVL188:
.LBB7185:
.LBB7186:
	.loc 5 303 0
	movl	$64, %edx
#APP
# 303 "src/floppy.c" 1
	movw %dx, %ES
# 0 "" 2
#NO_APP
	jmp	.L87
.LVL189:
.L70:
.LBE7186:
.LBE7185:
.LBE7183:
.LBE7182:
	.loc 5 565 0
	movw	$0, 16(%esi)
	movl	$1, %ebx
.LVL190:
.L77:
	.loc 5 568 0
	movl	%ebx, %eax
	addl	$16, %esp
	popl	%ebx
.LVL191:
	popl	%esi
.LVL192:
	popl	%edi
.LVL193:
	ret
	.cfi_endproc
.LFE585:
	.size	process_floppy_op.1223, .-process_floppy_op.1223
	.section	.text.handle_0e,"ax",@progbits
.globl handle_0e
	.type	handle_0e, @function
handle_0e:
.LFB586:
	.loc 5 578 0
	.cfi_startproc
	pushl	%ebx
	.cfi_def_cfa_offset 8
.LBB7187:
.LBB7188:
	.loc 2 92 0
	movl	$1012, %edx
#APP
# 92 "src/ioport.h" 1
	inb %dx, %al
# 0 "" 2
.LVL194:
#NO_APP
.LBE7188:
.LBE7187:
	.loc 5 583 0
	andl	$192, %eax
.LVL195:
	cmpl	$192, %eax
	je	.L93
	.cfi_offset 3, -8
.LBB7189:
.LBB7190:
	.loc 2 82 0
	movb	$-11, %dl
	movb	$8, %al
#APP
# 82 "src/ioport.h" 1
	outb %al, %dx
# 0 "" 2
#NO_APP
.LBE7190:
.LBE7189:
.LBB7191:
.LBB7192:
	.loc 2 92 0
	movb	$-12, %dl
.L94:
#APP
# 92 "src/ioport.h" 1
	inb %dx, %al
# 0 "" 2
.LVL196:
#NO_APP
.LBE7192:
.LBE7191:
	.loc 5 585 0
	andl	$192, %eax
.LVL197:
	cmpl	$192, %eax
	jne	.L94
.LBB7193:
.LBB7194:
	.loc 2 92 0
	movl	$1013, %ebx
.LBE7194:
.LBE7193:
.LBB7196:
.LBB7197:
	movl	$1012, %ecx
.L97:
.LBE7197:
.LBE7196:
.LBB7199:
.LBB7195:
	movl	%ebx, %edx
#APP
# 92 "src/ioport.h" 1
	inb %dx, %al
# 0 "" 2
.LVL198:
#NO_APP
.LBE7195:
.LBE7199:
.LBB7200:
.LBB7198:
	movl	%ecx, %edx
#APP
# 92 "src/ioport.h" 1
	inb %dx, %al
# 0 "" 2
.LVL199:
#NO_APP
.LBE7198:
.LBE7200:
	.loc 5 589 0
	andl	$192, %eax
.LVL200:
	cmpl	$192, %eax
	je	.L97
.L93:
.LBB7201:
	.loc 5 592 0
	movl	$64, %edx
#APP
# 592 "src/floppy.c" 1
	movw %dx, %ES
# 0 "" 2
#NO_APP
.LBB7202:
#APP
# 592 "src/floppy.c" 1
	movb %ES:62, %al
# 0 "" 2
.LVL201:
#NO_APP
.LBE7202:
.LBB7203:
	orl	$-128, %eax
.LVL202:
#APP
# 592 "src/floppy.c" 1
	movb %al, %ES:62
# 0 "" 2
#NO_APP
.LBE7203:
.LBE7201:
.LBB7204:
.LBB7205:
.LBB7206:
	.loc 2 82 0
	movb	$32, %al
.LVL203:
#APP
# 82 "src/ioport.h" 1
	outb %al, $32
# 0 "" 2
#NO_APP
.LBE7206:
.LBE7205:
.LBE7204:
	.loc 5 596 0
	popl	%ebx
	ret
	.cfi_endproc
.LFE586:
	.size	handle_0e, .-handle_0e
	.section	.text.udelay.1730,"ax",@progbits
	.type	udelay.1730, @function
udelay.1730:
.LFB1098:
	.file 7 "src/clock.c"
	.loc 7 114 0
	.cfi_startproc
.LVL204:
	pushl	%ebp
	.cfi_def_cfa_offset 8
	movl	%esp, %ebp
	.cfi_offset 5, -8
	.cfi_def_cfa_register 5
	pushl	%edi
	pushl	%esi
	pushl	%ebx
	subl	$8, %esp
	movl	%eax, %ecx
.LBB7207:
	.loc 7 115 0
#APP
# 115 "src/clock.c" 1
	movl %CS:cpu_khz, %ebx
# 0 "" 2
#NO_APP
.LBE7207:
.LBB7208:
.LBB7209:
.LBB7210:
.LBB7211:
	.file 8 "src/util.h"
	.loc 8 85 0
#APP
# 85 "src/util.h" 1
	rdtsc
# 0 "" 2
.LVL205:
#NO_APP
	movl	%eax, -20(%ebp)
	movl	%edx, -16(%ebp)
.LBE7211:
.LBE7210:
	.loc 7 97 0
	imull	%ecx, %ebx
	.cfi_offset 3, -20
	.cfi_offset 6, -16
	.cfi_offset 7, -12
	movl	$1000, %edx
	movl	%ebx, %eax
	movl	%edx, %ecx
.LVL206:
	xorl	%edx, %edx
	divl	%ecx
	movl	%eax, %ebx
.LVL207:
	xorl	%esi, %esi
.LVL208:
	addl	-20(%ebp), %ebx
.LVL209:
	adcl	-16(%ebp), %esi
.LVL210:
	jmp	.L101
.L102:
.LBB7212:
.LBB7213:
	.loc 8 36 0
#APP
# 36 "src/util.h" 1
	rep ; nop
# 0 "" 2
#NO_APP
.L101:
.LBE7213:
.LBE7212:
.LBB7214:
.LBB7215:
.LBB7216:
	.loc 8 85 0
#APP
# 85 "src/util.h" 1
	rdtsc
# 0 "" 2
#NO_APP
	movl	%eax, -20(%ebp)
	movl	%edx, -16(%ebp)
.LBE7216:
.LBE7215:
.LBE7214:
	.loc 7 98 0
	subl	%ebx, -20(%ebp)
	sbbl	%esi, -16(%ebp)
	cmpl	$0, -16(%ebp)
	jl	.L102
	jg	.L104
	cmpl	$0, -20(%ebp)
	jbe	.L102
.L104:
.LBE7209:
.LBE7208:
	.loc 7 116 0
	popl	%ebx
.LVL211:
	popl	%esi
.LVL212:
	popl	%ebx
	popl	%esi
	popl	%edi
	leave
	ret
	.cfi_endproc
.LFE1098:
	.size	udelay.1730, .-udelay.1730
	.section	.text.process_mouse.1709,"ax",@progbits
	.type	process_mouse.1709, @function
process_mouse.1709:
.LFB787:
	.file 9 "src/mouse.c"
	.loc 9 286 0
	.cfi_startproc
.LVL213:
	pushl	%edi
	.cfi_def_cfa_offset 8
	pushl	%esi
	.cfi_def_cfa_offset 12
	pushl	%ebx
	.cfi_def_cfa_offset 16
.LBB7217:
.LBB7218:
	.file 10 "src/biosvar.h"
	.loc 10 249 0
	movl	$64, %edx
#APP
# 249 "src/biosvar.h" 1
	movw %dx, %ES
# 0 "" 2
#NO_APP
.LBB7219:
#APP
# 249 "src/biosvar.h" 1
	movw %ES:14, %si
# 0 "" 2
.LVL214:
#NO_APP
.LBE7219:
.LBE7218:
.LBE7217:
	.loc 9 291 0
#APP
# 291 "src/mouse.c" 1
	movw %si, %ES
# 0 "" 2
#NO_APP
.LBB7220:
#APP
# 291 "src/mouse.c" 1
	movb %ES:38, %dl
# 0 "" 2
.LVL215:
#NO_APP
.LBE7220:
	.loc 9 292 0
#APP
# 292 "src/mouse.c" 1
	movw %si, %ES
# 0 "" 2
#NO_APP
.LBB7221:
#APP
# 292 "src/mouse.c" 1
	movb %ES:39, %cl
# 0 "" 2
.LVL216:
#NO_APP
.LBE7221:
	.loc 9 294 0
	testb	%cl, %cl
	jns	.L108
	.cfi_offset 3, -16
	.cfi_offset 6, -12
	.cfi_offset 7, -8
.LBB7222:
	.loc 9 300 0
#APP
# 300 "src/mouse.c" 1
	movw %si, %ES
# 0 "" 2
#NO_APP
	movl	%edx, %ebx
.LVL217:
	andl	$7, %ebx
#APP
# 300 "src/mouse.c" 1
	movb %al, %ES:40(%ebx)
# 0 "" 2
#NO_APP
.LBE7222:
	.loc 9 302 0
	incl	%ebx
	andl	$7, %ecx
.LVL218:
	cmpl	%ecx, %ebx
	jge	.L107
	.loc 9 303 0
	incl	%edx
.LVL219:
.LBB7223:
	.loc 9 304 0
#APP
# 304 "src/mouse.c" 1
	movw %si, %ES
# 0 "" 2
# 304 "src/mouse.c" 1
	movb %dl, %ES:38
# 0 "" 2
#NO_APP
	jmp	.L108
.LVL220:
.L107:
.LBE7223:
	.loc 9 308 0
#APP
# 308 "src/mouse.c" 1
	movw %si, %ES
# 0 "" 2
#NO_APP
.LBB7224:
#APP
# 308 "src/mouse.c" 1
	movb %ES:40, %cl
# 0 "" 2
.LVL221:
#NO_APP
.LBE7224:
	movzbl	%cl, %ecx
.LVL222:
	.loc 9 309 0
#APP
# 309 "src/mouse.c" 1
	movw %si, %ES
# 0 "" 2
#NO_APP
.LBB7225:
#APP
# 309 "src/mouse.c" 1
	movb %ES:41, %dl
# 0 "" 2
.LVL223:
#NO_APP
.LBE7225:
	movzbl	%dl, %edx
.LVL224:
	.loc 9 310 0
#APP
# 310 "src/mouse.c" 1
	movw %si, %ES
# 0 "" 2
#NO_APP
.LBB7226:
#APP
# 310 "src/mouse.c" 1
	movb %ES:42, %bl
# 0 "" 2
.LVL225:
#NO_APP
.LBE7226:
	movzbl	%bl, %ebx
.LVL226:
.LBB7227:
	.loc 9 311 0
#APP
# 311 "src/mouse.c" 1
	movw %si, %ES
# 0 "" 2
#NO_APP
	xorl	%eax, %eax
.LVL227:
#APP
# 311 "src/mouse.c" 1
	movb %al, %ES:38
# 0 "" 2
#NO_APP
.LBE7227:
	.loc 9 313 0
#APP
# 313 "src/mouse.c" 1
	movw %si, %ES
# 0 "" 2
#NO_APP
.LBB7228:
#APP
# 313 "src/mouse.c" 1
	movl %ES:34, %eax
# 0 "" 2
.LVL228:
#NO_APP
.LBE7228:
	.loc 9 317 0
#APP
# 317 "src/mouse.c" 1
	pushl %ebp
sti
pushl %eax
pushw %cx
pushw %dx
pushw %bx
pushw $0
lcallw *8(%esp)
addl $12, %esp
cli
cld
popl %ebp
# 0 "" 2
.LVL229:
#NO_APP
.L108:
	.loc 9 335 0
	popl	%ebx
.LVL230:
	popl	%esi
.LVL231:
	popl	%edi
	ret
	.cfi_endproc
.LFE787:
	.size	process_mouse.1709, .-process_mouse.1709
	.section	.text.dequeue_key.26840,"ax",@progbits
	.type	dequeue_key.26840, @function
dequeue_key.26840:
.LFB854:
	.file 11 "src/kbd.c"
	.loc 11 75 0
	.cfi_startproc
.LVL232:
	pushl	%ebp
	.cfi_def_cfa_offset 8
	pushl	%edi
	.cfi_def_cfa_offset 12
	pushl	%esi
	.cfi_def_cfa_offset 16
	pushl	%ebx
	.cfi_def_cfa_offset 20
	subl	$8, %esp
	.cfi_def_cfa_offset 28
.LBB7229:
.LBB7230:
.LBB7231:
.LBB7232:
	.loc 6 72 0
#APP
# 72 "src/util.c" 1
	sti
nop
rep ; nop
cli
cld

# 0 "" 2
#NO_APP
.LBE7232:
.LBE7231:
.LBE7230:
.LBE7229:
	.loc 11 80 0
	movl	$64, %edi
	.cfi_offset 3, -20
	.cfi_offset 6, -16
	.cfi_offset 7, -12
	.cfi_offset 5, -8
.LBB7233:
	xorl	%esi, %esi
.LVL233:
.L113:
.LBE7233:
#APP
# 80 "src/kbd.c" 1
	movw %di, %ES
# 0 "" 2
#NO_APP
.LBB7234:
#APP
# 80 "src/kbd.c" 1
	movw %ES:26(%esi), %bx
# 0 "" 2
#NO_APP
.LBE7234:
	.loc 11 81 0
#APP
# 81 "src/kbd.c" 1
	movw %di, %ES
# 0 "" 2
#NO_APP
.LBB7235:
#APP
# 81 "src/kbd.c" 1
	movw %ES:28(%esi), %bp
# 0 "" 2
#NO_APP
.LBE7235:
	.loc 11 83 0
	cmpw	%bp, %bx
	jne	.L110
	.loc 11 85 0
	testl	%edx, %edx
	jne	.L111
	.loc 11 86 0
	orw	$64, 36(%eax)
	.loc 11 87 0
	jmp	.L120
.L111:
.LBB7236:
.LBB7237:
	.loc 8 42 0
#APP
# 42 "src/util.h" 1
	sti ; hlt ; cli ; cld
# 0 "" 2
#NO_APP
.LBE7237:
.LBE7236:
	.loc 11 90 0
	jmp	.L113
.L110:
	movw	%bx, 2(%esp)
	.loc 11 92 0
	movl	$64, %ebx
.LVL234:
#APP
# 92 "src/kbd.c" 1
	movw %bx, %ES
# 0 "" 2
#NO_APP
.LBB7238:
	movzwl	2(%esp), %esi
#APP
# 92 "src/kbd.c" 1
	movb %ES:(%esi), %bl
# 0 "" 2
#NO_APP
	movb	%bl, 7(%esp)
.LBE7238:
	.loc 11 93 0
	movl	$64, %ebx
#APP
# 93 "src/kbd.c" 1
	movw %bx, %ES
# 0 "" 2
#NO_APP
.LBB7239:
#APP
# 93 "src/kbd.c" 1
	movb %ES:1(%esi), %bl
# 0 "" 2
#NO_APP
	movl	%ebx, %esi
.LVL235:
.LBE7239:
	.loc 11 94 0
	testb	%bl, %bl
	je	.L121
	cmpb	$-16, 7(%esp)
	je	.L114
.L121:
	cmpb	$-32, 7(%esp)
	jne	.L122
	testl	%ecx, %ecx
	je	.L114
.L122:
	movb	7(%esp), %cl
.LVL236:
	jmp	.L117
.LVL237:
.L114:
	xorl	%ecx, %ecx
.LVL238:
.L117:
	.loc 11 97 0
	movzbl	%cl, %edi
.LVL239:
	movl	%esi, %ecx
.LVL240:
	sall	$8, %ecx
	orl	%edi, %ecx
	movw	%cx, 28(%eax)
	.loc 11 99 0
	testl	%edx, %edx
	jne	.L118
	.loc 11 100 0
	andw	$-65, 36(%eax)
	.loc 11 101 0
	jmp	.L120
.L118:
	.loc 11 103 0
	movl	$64, %eax
.LVL241:
#APP
# 103 "src/kbd.c" 1
	movw %ax, %ES
# 0 "" 2
#NO_APP
.LBB7240:
#APP
# 103 "src/kbd.c" 1
	movw %ES:128, %dx
# 0 "" 2
.LVL242:
#NO_APP
.LBE7240:
	.loc 11 104 0
#APP
# 104 "src/kbd.c" 1
	movw %ax, %ES
# 0 "" 2
#NO_APP
.LBB7241:
#APP
# 104 "src/kbd.c" 1
	movw %ES:130, %ax
# 0 "" 2
.LVL243:
#NO_APP
.LBE7241:
	.loc 11 106 0
	movw	2(%esp), %bx
.LVL244:
	addl	$2, %ebx
.LVL245:
	.loc 11 107 0
	cmpw	%ax, %bx
	jb	.L119
	movl	%edx, %ebx
.LVL246:
.L119:
.LBB7242:
	.loc 11 109 0
	movl	$64, %eax
.LVL247:
#APP
# 109 "src/kbd.c" 1
	movw %ax, %ES
# 0 "" 2
# 109 "src/kbd.c" 1
	movw %bx, %ES:26
# 0 "" 2
.LVL248:
#NO_APP
.L120:
.LBE7242:
	.loc 11 110 0
	popl	%edi
	.cfi_def_cfa_offset 24
.LVL249:
	popl	%ebp
	.cfi_def_cfa_offset 20
.LVL250:
	popl	%ebx
.LVL251:
	popl	%esi
	popl	%edi
	popl	%ebp
	ret
	.cfi_endproc
.LFE854:
	.size	dequeue_key.26840, .-dequeue_key.26840
	.section	.text.pci_next.19998,"ax",@progbits
	.type	pci_next.19998, @function
pci_next.19998:
.LFB932:
	.file 12 "src/pci.c"
	.loc 12 62 0
	.cfi_startproc
.LVL252:
	pushl	%ebp
	.cfi_def_cfa_offset 8
	pushl	%edi
	.cfi_def_cfa_offset 12
	pushl	%esi
	.cfi_def_cfa_offset 16
	pushl	%ebx
	.cfi_def_cfa_offset 20
	subl	$4, %esp
	.cfi_def_cfa_offset 24
	movl	%eax, %ecx
	movl	%edx, %esi
	.cfi_offset 3, -20
	.cfi_offset 6, -16
	.cfi_offset 7, -12
	.cfi_offset 5, -8
	.loc 12 63 0
	movb	%al, %dl
.LVL253:
	andl	$7, %edx
	decb	%dl
	jne	.L124
.LBB7243:
.LBB7244:
.LBB7245:
	.loc 2 88 0
	decl	%eax
	movzwl	%ax, %eax
	sall	$8, %eax
	orl	$-2147483636, %eax
	movl	$3320, %edx
#APP
# 88 "src/ioport.h" 1
	outl %eax, %dx
# 0 "" 2
#NO_APP
.LBE7245:
.LBE7244:
.LBB7246:
.LBB7247:
	.loc 2 92 0
	movb	$-2, %dl
#APP
# 92 "src/ioport.h" 1
	inb %dx, %al
# 0 "" 2
.LVL254:
#NO_APP
.LBE7247:
.LBE7246:
.LBE7243:
	.loc 12 63 0
	testb	%al, %al
	js	.L124
	.loc 12 67 0
	addl	$7, %ecx
.L124:
	.loc 12 69 0
	movl	(%esi), %eax
.LVL255:
	movl	%eax, (%esp)
.LBB7248:
.LBB7249:
.LBB7250:
.LBB7251:
.LBB7252:
	.loc 2 88 0
	movl	$3320, %ebp
.L131:
.LBE7252:
.LBE7251:
.LBE7250:
.LBE7249:
	.loc 12 71 0
	cmpl	(%esp), %ecx
	jl	.L125
	orl	$-1, %ecx
	jmp	.L126
.L125:
.LBB7258:
.LBB7257:
	.loc 12 41 0
	movzwl	%cx, %ebx
.LVL256:
	sall	$8, %ebx
.LBB7254:
.LBB7253:
	.loc 2 88 0
	movl	%ebx, %eax
	orl	$-2147483648, %eax
	movl	%ebp, %edx
#APP
# 88 "src/ioport.h" 1
	outl %eax, %dx
# 0 "" 2
#NO_APP
.LBE7253:
.LBE7254:
.LBB7255:
.LBB7256:
	.loc 2 97 0
	movl	$3324, %edx
#APP
# 97 "src/ioport.h" 1
	inw %dx, %ax
# 0 "" 2
.LVL257:
#NO_APP
.LBE7256:
.LBE7255:
.LBE7257:
.LBE7258:
	.loc 12 82 0
	decl	%eax
.LVL258:
	cmpw	$-3, %ax
	jbe	.L127
	.loc 12 86 0
	testb	$7, %cl
	jne	.L128
	.loc 12 87 0
	addl	$8, %ecx
.LVL259:
	jmp	.L131
.LVL260:
.L128:
	.loc 12 89 0
	incl	%ecx
.LVL261:
	jmp	.L131
.LVL262:
.L127:
.LBE7248:
.LBB7259:
.LBB7260:
.LBB7261:
	.loc 2 88 0
	movl	%ebx, %eax
	orl	$-2147483636, %eax
	movl	$3320, %edx
#APP
# 88 "src/ioport.h" 1
	outl %eax, %dx
# 0 "" 2
#NO_APP
.LBE7261:
.LBE7260:
.LBB7262:
.LBB7263:
	.loc 2 92 0
	movb	$-2, %dl
#APP
# 92 "src/ioport.h" 1
	inb %dx, %al
# 0 "" 2
.LVL263:
#NO_APP
.LBE7263:
.LBE7262:
.LBE7259:
	.loc 12 95 0
	andl	$127, %eax
.LVL264:
	decl	%eax
	cmpl	$1, %eax
	ja	.L126
.LBB7264:
.LBB7265:
.LBB7266:
.LBB7267:
	.loc 2 88 0
	movl	%ebx, %eax
	orl	$-2147483624, %eax
	movb	$-8, %dl
#APP
# 88 "src/ioport.h" 1
	outl %eax, %dx
# 0 "" 2
#NO_APP
.LBE7267:
.LBE7266:
.LBB7268:
.LBB7269:
	.loc 2 102 0
	movb	$-4, %dl
#APP
# 102 "src/ioport.h" 1
	inl %dx, %eax
# 0 "" 2
#NO_APP
.LBE7269:
.LBE7268:
.LBE7265:
	.loc 12 97 0
	andl	$65280, %eax
	addl	$256, %eax
.LVL265:
	.loc 12 98 0
	cmpl	(%esp), %eax
	jle	.L126
	.loc 12 99 0
	movl	%eax, (%esi)
.LVL266:
.L126:
.LBE7264:
	.loc 12 103 0
	movl	%ecx, %eax
.LVL267:
	popl	%edx
	.cfi_def_cfa_offset 20
	popl	%ebx
	popl	%esi
.LVL268:
	popl	%edi
	popl	%ebp
	ret
	.cfi_endproc
.LFE932:
	.size	pci_next.19998, .-pci_next.19998
	.section	.text.handle_14,"ax",@progbits
.globl handle_14
	.type	handle_14, @function
handle_14:
.LFB1010:
	.file 13 "src/serial.c"
	.loc 13 187 0
	.cfi_startproc
.LVL269:
	pushl	%ebp
	.cfi_def_cfa_offset 8
	pushl	%edi
	.cfi_def_cfa_offset 12
	pushl	%esi
	.cfi_def_cfa_offset 16
	pushl	%ebx
	.cfi_def_cfa_offset 20
	movl	%eax, %ebx
	.cfi_offset 3, -20
	.cfi_offset 6, -16
	.cfi_offset 7, -12
	.cfi_offset 5, -8
	.loc 13 194 0
	movb	29(%eax), %al
.LVL270:
	cmpb	$1, %al
	je	.L135
	jb	.L134
	cmpb	$2, %al
	je	.L136
	cmpb	$3, %al
	jne	.L161
	jmp	.L170
.L134:
.LBB7270:
.LBB7271:
.LBB7287:
.LBB7288:
	.loc 13 81 0
	movw	20(%ebx), %ax
	cmpw	$3, %ax
	ja	.L161
	.loc 13 85 0
	movl	$64, %edx
#APP
# 85 "src/serial.c" 1
	movw %dx, %ES
# 0 "" 2
#NO_APP
.LBB7289:
	movzwl	%ax, %eax
#APP
# 85 "src/serial.c" 1
	movw %ES:(%eax,%eax), %si
# 0 "" 2
.LVL271:
#NO_APP
.LBE7289:
	.loc 13 86 0
	testw	%si, %si
	jne	.L140
	jmp	.L161
.L158:
.LBE7288:
.LBE7287:
.LBB7285:
.LBB7286:
	.loc 2 82 0
	movb	$23, %al
	movl	%esi, %edx
#APP
# 82 "src/ioport.h" 1
	outb %al, %dx
# 0 "" 2
#NO_APP
.LBE7286:
.LBE7285:
.LBB7283:
.LBB7284:
	leal	1(%esi), %edx
	movb	$4, %al
	jmp	.L163
.L171:
.LBE7284:
.LBE7283:
.LBB7278:
	.loc 13 103 0
	movb	%al, %cl
	shrb	$5, %cl
	movl	$1536, %eax
	sarl	%cl, %eax
.LVL272:
.LBB7279:
.LBB7280:
	.loc 2 82 0
	movl	%esi, %edx
#APP
# 82 "src/ioport.h" 1
	outb %al, %dx
# 0 "" 2
#NO_APP
.LBE7280:
.LBE7279:
.LBB7281:
.LBB7282:
	shrw	$8, %ax
.LVL273:
	leal	1(%esi), %edx
.L163:
#APP
# 82 "src/ioport.h" 1
	outb %al, %dx
# 0 "" 2
#NO_APP
.LBE7282:
.LBE7281:
.LBE7278:
.LBB7276:
.LBB7277:
	movl	%ebp, %eax
	andl	$31, %eax
	movl	%edi, %edx
#APP
# 82 "src/ioport.h" 1
	outb %al, %dx
# 0 "" 2
#NO_APP
.LBE7277:
.LBE7276:
.LBB7274:
.LBB7275:
	.loc 2 92 0
	leal	5(%esi), %edx
#APP
# 92 "src/ioport.h" 1
	inb %dx, %al
# 0 "" 2
.LVL274:
#NO_APP
.LBE7275:
.LBE7274:
	.loc 13 108 0
	movb	%al, 29(%ebx)
.LBB7272:
.LBB7273:
	.loc 2 92 0
	leal	6(%esi), %edx
	jmp	.L167
.LVL275:
.L135:
.LBE7273:
.LBE7272:
.LBE7271:
.LBE7270:
.LBB7295:
.LBB7296:
.LBB7314:
.LBB7315:
	.loc 13 81 0
	movw	20(%ebx), %dx
	cmpw	$3, %dx
	ja	.L161
	.loc 13 85 0
	movl	$64, %eax
#APP
# 85 "src/serial.c" 1
	movw %ax, %ES
# 0 "" 2
#NO_APP
.LBB7316:
	movzwl	%dx, %edx
#APP
# 85 "src/serial.c" 1
	movw %ES:(%edx,%edx), %cx
# 0 "" 2
.LVL276:
#NO_APP
.LBE7316:
	.loc 13 86 0
	testw	%cx, %cx
	jne	.L143
	jmp	.L161
.LVL277:
.L148:
.LBE7315:
.LBE7314:
.LBB7297:
.LBB7309:
.LBB7310:
	.loc 2 92 0
#APP
# 92 "src/ioport.h" 1
	inb %dx, %al
# 0 "" 2
.LVL278:
#NO_APP
	movl	%eax, %esi
.LVL279:
.LBE7310:
.LBE7309:
	.loc 13 123 0
	movl	%esi, %eax
.LVL280:
	andl	$96, %eax
	cmpl	$96, %eax
	jne	.L144
.LBB7307:
.LBB7308:
	.loc 2 82 0
	movb	28(%ebx), %al
	movl	%ecx, %edx
#APP
# 82 "src/ioport.h" 1
	outb %al, %dx
# 0 "" 2
#NO_APP
.LBE7308:
.LBE7307:
	.loc 13 127 0
	movl	%esi, %eax
.LVL281:
	jmp	.L164
.LVL282:
.L144:
.LBB7302:
.LBB7303:
	.loc 13 27 0
	movl	$64, %eax
#APP
# 27 "src/serial.c" 1
	movw %ax, %ES
# 0 "" 2
#NO_APP
.LBB7304:
#APP
# 27 "src/serial.c" 1
	movl %ES:108(%ebp), %eax
# 0 "" 2
.LVL283:
#NO_APP
.LBE7304:
	.loc 13 28 0
	cmpw	%ax, %di
.LVL284:
	je	.L146
	.loc 13 31 0
	movl	%eax, %edi
.LVL285:
	decw	%di
	je	.L147
.LVL286:
.L146:
.LBE7303:
.LBE7302:
.LBB7298:
.LBB7299:
.LBB7300:
.LBB7301:
	.loc 6 72 0
#APP
# 72 "src/util.c" 1
	sti
nop
rep ; nop
cli
cld

# 0 "" 2
#NO_APP
	jmp	.L148
.LVL287:
.L147:
.LBE7301:
.LBE7300:
.LBE7299:
.LBE7298:
	.loc 13 132 0
	movl	%esi, %eax
.LVL288:
	orl	$-128, %eax
.LVL289:
.L164:
	movb	%al, 29(%ebx)
	jmp	.L166
.LVL290:
.L136:
.LBE7297:
.LBE7296:
.LBE7295:
.LBB7322:
.LBB7323:
.LBB7340:
.LBB7341:
	.loc 13 81 0
	movw	20(%ebx), %dx
	cmpw	$3, %dx
	ja	.L161
	.loc 13 85 0
	movl	$64, %eax
#APP
# 85 "src/serial.c" 1
	movw %ax, %ES
# 0 "" 2
#NO_APP
.LBB7342:
	movzwl	%dx, %edx
#APP
# 85 "src/serial.c" 1
	movw %ES:(%edx,%edx), %si
# 0 "" 2
.LVL291:
#NO_APP
.LBE7342:
	.loc 13 86 0
	testw	%si, %si
	jne	.L150
	jmp	.L161
.LVL292:
.L155:
.LBE7341:
.LBE7340:
.LBB7324:
.LBB7335:
.LBB7336:
	.loc 2 92 0
#APP
# 92 "src/ioport.h" 1
	inb %dx, %al
# 0 "" 2
.LVL293:
#NO_APP
	movb	%al, %cl
.LVL294:
.LBE7336:
.LBE7335:
	.loc 13 150 0
	movl	%ecx, %eax
.LVL295:
	andl	$1, %eax
	je	.L151
.LBB7333:
.LBB7334:
	.loc 2 92 0
	movl	%esi, %edx
#APP
# 92 "src/ioport.h" 1
	inb %dx, %al
# 0 "" 2
.LVL296:
#NO_APP
.LBE7334:
.LBE7333:
	.loc 13 152 0
	movb	%al, 28(%ebx)
	jmp	.L165
.LVL297:
.L151:
.LBB7329:
.LBB7330:
	.loc 13 27 0
#APP
# 27 "src/serial.c" 1
	movw %bp, %ES
# 0 "" 2
#NO_APP
.LBB7331:
#APP
# 27 "src/serial.c" 1
	movl %ES:108(%eax), %eax
# 0 "" 2
.LVL298:
#NO_APP
.LBE7331:
	.loc 13 28 0
	cmpw	%ax, %di
.LVL299:
	je	.L153
	.loc 13 31 0
	movl	%eax, %edi
.LVL300:
	decw	%di
	je	.L154
.LVL301:
.L153:
.LBE7330:
.LBE7329:
.LBB7325:
.LBB7326:
.LBB7327:
.LBB7328:
	.loc 6 72 0
#APP
# 72 "src/util.c" 1
	sti
nop
rep ; nop
cli
cld

# 0 "" 2
#NO_APP
	jmp	.L155
.LVL302:
.L154:
.LBE7328:
.LBE7327:
.LBE7326:
.LBE7325:
	.loc 13 158 0
	orl	$-128, %ecx
.LVL303:
.L165:
	movb	%cl, 29(%ebx)
	jmp	.L166
.LVL304:
.L170:
.LBE7324:
.LBE7323:
.LBE7322:
.LBB7348:
.LBB7349:
.LBB7350:
.LBB7351:
	.loc 13 81 0
	movw	20(%ebx), %ax
	cmpw	$3, %ax
	ja	.L161
	.loc 13 85 0
	movl	$64, %edx
#APP
# 85 "src/serial.c" 1
	movw %dx, %ES
# 0 "" 2
#NO_APP
.LBB7352:
	movzwl	%ax, %eax
#APP
# 85 "src/serial.c" 1
	movw %ES:(%eax,%eax), %cx
# 0 "" 2
.LVL305:
#NO_APP
.LBE7352:
	.loc 13 86 0
	testw	%cx, %cx
	jne	.L157
.LVL306:
.L161:
.LBE7351:
.LBE7350:
.LBE7349:
.LBE7348:
.LBB7361:
.LBB7362:
.LBB7363:
.LBB7364:
.LBB7365:
.LBB7366:
	.file 14 "src/bregs.h"
	.loc 14 60 0
	orw	$1, 36(%ebx)
	jmp	.L160
.LVL307:
.L140:
.LBE7366:
.LBE7365:
.LBE7364:
.LBE7363:
.LBE7362:
.LBE7361:
.LBB7367:
.LBB7294:
	.loc 13 98 0
	leal	3(%esi), %edi
.LBB7290:
.LBB7291:
	.loc 2 92 0
	movl	%edi, %edx
#APP
# 92 "src/ioport.h" 1
	inb %dx, %al
# 0 "" 2
#NO_APP
.LBE7291:
.LBE7290:
.LBB7292:
.LBB7293:
	.loc 2 82 0
	orl	$-128, %eax
#APP
# 82 "src/ioport.h" 1
	outb %al, %dx
# 0 "" 2
#NO_APP
.LBE7293:
.LBE7292:
	.loc 13 99 0
	movb	28(%ebx), %al
	movzbl	%al, %ebp
	movl	%ebp, %edx
	andb	$-32, %dl
	je	.L158
	jmp	.L171
.LVL308:
.L143:
.LBE7294:
.LBE7367:
.LBB7368:
.LBB7321:
.LBB7317:
.LBB7318:
	.loc 13 20 0
#APP
# 20 "src/serial.c" 1
	movw %ax, %ES
# 0 "" 2
#NO_APP
.LBB7319:
#APP
# 20 "src/serial.c" 1
	movl %ES:108, %edi
# 0 "" 2
.LVL309:
#NO_APP
.LBE7319:
.LBE7318:
.LBE7317:
.LBB7320:
.LBB7312:
.LBB7311:
	.loc 2 92 0
	leal	5(%ecx), %edx
.LBE7311:
.LBE7312:
.LBB7313:
.LBB7306:
.LBB7305:
	.loc 13 27 0
	xorl	%ebp, %ebp
	jmp	.L148
.LVL310:
.L150:
.LBE7305:
.LBE7306:
.LBE7313:
.LBE7320:
.LBE7321:
.LBE7368:
.LBB7369:
.LBB7347:
.LBB7343:
.LBB7344:
	.loc 13 20 0
#APP
# 20 "src/serial.c" 1
	movw %ax, %ES
# 0 "" 2
#NO_APP
.LBB7345:
#APP
# 20 "src/serial.c" 1
	movl %ES:108, %edi
# 0 "" 2
.LVL311:
#NO_APP
.LBE7345:
.LBE7344:
.LBE7343:
.LBB7346:
.LBB7338:
.LBB7337:
	.loc 2 92 0
	leal	5(%esi), %edx
.LBE7337:
.LBE7338:
.LBB7339:
.LBB7332:
	.loc 13 27 0
	movl	$64, %ebp
	jmp	.L155
.LVL312:
.L157:
.LBE7332:
.LBE7339:
.LBE7346:
.LBE7347:
.LBE7369:
.LBB7370:
.LBB7360:
.LBB7353:
.LBB7354:
	.loc 2 92 0
	leal	5(%ecx), %edx
#APP
# 92 "src/ioport.h" 1
	inb %dx, %al
# 0 "" 2
.LVL313:
#NO_APP
.LBE7354:
.LBE7353:
	.loc 13 173 0
	movb	%al, 29(%ebx)
.LBB7355:
.LBB7356:
	.loc 2 92 0
	leal	6(%ecx), %edx
.LVL314:
.L167:
#APP
# 92 "src/ioport.h" 1
	inb %dx, %al
# 0 "" 2
.LVL315:
#NO_APP
.LBE7356:
.LBE7355:
	.loc 13 174 0
	movb	%al, 28(%ebx)
.LVL316:
.L166:
.LBB7357:
.LBB7358:
.LBB7359:
	.loc 14 62 0
	andw	$-2, 36(%ebx)
.L160:
.LBE7359:
.LBE7358:
.LBE7357:
.LBE7360:
.LBE7370:
	.loc 13 201 0
	popl	%ebx
.LVL317:
	popl	%esi
.LVL318:
	popl	%edi
.LVL319:
	popl	%ebp
	ret
	.cfi_endproc
.LFE1010:
	.size	handle_14, .-handle_14
	.section	.text.handle_17,"ax",@progbits
.globl handle_17
	.type	handle_17, @function
handle_17:
.LFB1018:
	.loc 13 327 0
	.cfi_startproc
.LVL320:
	pushl	%ebp
	.cfi_def_cfa_offset 8
	pushl	%edi
	.cfi_def_cfa_offset 12
	pushl	%esi
	.cfi_def_cfa_offset 16
	pushl	%ebx
	.cfi_def_cfa_offset 20
	subl	$4, %esp
	.cfi_def_cfa_offset 24
	movl	%eax, %ebx
	.cfi_offset 3, -20
	.cfi_offset 6, -16
	.cfi_offset 7, -12
	.cfi_offset 5, -8
	.loc 13 334 0
	movb	29(%eax), %al
.LVL321:
	cmpb	$1, %al
	je	.L175
	jb	.L174
	cmpb	$2, %al
	jne	.L190
	jmp	.L197
.L174:
.LBB7371:
.LBB7372:
.LBB7388:
.LBB7389:
	.loc 13 246 0
	movw	20(%ebx), %dx
	cmpw	$2, %dx
	ja	.L190
	.loc 13 250 0
	movl	$64, %eax
#APP
# 250 "src/serial.c" 1
	movw %ax, %ES
# 0 "" 2
#NO_APP
.LBB7390:
	movzwl	%dx, %edx
#APP
# 250 "src/serial.c" 1
	movw %ES:8(%edx,%edx), %di
# 0 "" 2
.LVL322:
#NO_APP
.LBE7390:
	.loc 13 251 0
	testw	%di, %di
	jne	.L179
	jmp	.L190
.LVL323:
.L184:
.LBE7389:
.LBE7388:
.LBB7373:
.LBB7383:
.LBB7384:
	.loc 2 92 0
#APP
# 92 "src/ioport.h" 1
	inb %dx, %al
# 0 "" 2
#NO_APP
.LBE7384:
.LBE7383:
	.loc 13 274 0
	testb	$64, %al
	je	.L195
.LBB7378:
.LBB7379:
	.loc 13 27 0
#APP
# 27 "src/serial.c" 1
	movw %di, %ES
# 0 "" 2
#NO_APP
.LBB7380:
#APP
# 27 "src/serial.c" 1
	movl %ES:108(%ecx), %ebp
# 0 "" 2
.LVL324:
#NO_APP
.LBE7380:
	.loc 13 28 0
	cmpw	%bp, %si
.LVL325:
	je	.L182
	.loc 13 31 0
	movl	%ebp, %esi
.LVL326:
	decw	%si
	je	.L183
.LVL327:
.L182:
.LBE7379:
.LBE7378:
.LBB7374:
.LBB7375:
.LBB7376:
.LBB7377:
	.loc 6 72 0
#APP
# 72 "src/util.c" 1
	sti
nop
rep ; nop
cli
cld

# 0 "" 2
#NO_APP
	jmp	.L184
.LVL328:
.L183:
.LBE7377:
.LBE7376:
.LBE7375:
.LBE7374:
	.loc 13 281 0
	xorl	$72, %eax
.LVL329:
	orl	$1, %eax
	jmp	.L194
.LVL330:
.L175:
.LBE7373:
.LBE7372:
.LBE7371:
.LBB7404:
.LBB7405:
.LBB7406:
.LBB7407:
	.loc 13 246 0
	movw	20(%ebx), %ax
	cmpw	$2, %ax
	ja	.L190
	.loc 13 250 0
	movl	$64, %edx
#APP
# 250 "src/serial.c" 1
	movw %dx, %ES
# 0 "" 2
#NO_APP
.LBB7408:
	movzwl	%ax, %eax
#APP
# 250 "src/serial.c" 1
	movw %ES:8(%eax,%eax), %si
# 0 "" 2
.LVL331:
#NO_APP
.LBE7408:
	.loc 13 251 0
	testw	%si, %si
	jne	.L186
	jmp	.L190
.LVL332:
.L197:
.LBE7407:
.LBE7406:
.LBE7405:
.LBE7404:
.LBB7418:
.LBB7419:
.LBB7424:
.LBB7425:
	.loc 13 246 0
	movw	20(%ebx), %ax
	cmpw	$2, %ax
	ja	.L190
	.loc 13 250 0
	movl	$64, %edx
#APP
# 250 "src/serial.c" 1
	movw %dx, %ES
# 0 "" 2
#NO_APP
.LBB7426:
	movzwl	%ax, %eax
#APP
# 250 "src/serial.c" 1
	movw %ES:8(%eax,%eax), %ax
# 0 "" 2
.LVL333:
#NO_APP
.LBE7426:
.LBE7425:
.LBE7424:
.LBB7421:
.LBB7422:
	.loc 2 92 0
	leal	1(%eax), %edx
.LBE7422:
.LBE7421:
.LBB7420:
.LBB7427:
	.loc 13 251 0
	testw	%ax, %ax
	jne	.L192
.LVL334:
.L190:
.LBE7427:
.LBE7420:
.LBE7419:
.LBE7418:
.LBB7433:
.LBB7434:
.LBB7435:
.LBB7436:
.LBB7437:
.LBB7438:
	.loc 14 60 0
	orw	$1, 36(%ebx)
	jmp	.L189
.LVL335:
.L179:
.LBE7438:
.LBE7437:
.LBE7436:
.LBE7435:
.LBE7434:
.LBE7433:
.LBB7439:
.LBB7403:
.LBB7391:
.LBB7392:
	.loc 13 20 0
#APP
# 20 "src/serial.c" 1
	movw %ax, %ES
# 0 "" 2
#NO_APP
.LBB7393:
#APP
# 20 "src/serial.c" 1
	movl %ES:108, %esi
# 0 "" 2
.LVL336:
#NO_APP
.LBE7393:
.LBE7392:
.LBE7391:
.LBB7394:
.LBB7395:
	.loc 2 82 0
	movb	28(%ebx), %al
	movl	%edi, %edx
#APP
# 82 "src/ioport.h" 1
	outb %al, %dx
# 0 "" 2
#NO_APP
.LBE7395:
.LBE7394:
	.loc 13 267 0
	leal	2(%edi), %edx
.LBB7396:
.LBB7397:
	.loc 2 92 0
#APP
# 92 "src/ioport.h" 1
	inb %dx, %al
# 0 "" 2
#NO_APP
	movl	%eax, %ebp
.LVL337:
.LBE7397:
.LBE7396:
.LBB7398:
.LBB7399:
	.loc 2 82 0
	orl	$1, %eax
#APP
# 82 "src/ioport.h" 1
	outb %al, %dx
# 0 "" 2
#NO_APP
.LBE7399:
.LBE7398:
	.loc 13 269 0
	movl	$5, %eax
	movl	%edx, (%esp)
	call	udelay.1730
.LBB7400:
.LBB7401:
	.loc 2 82 0
	movl	%ebp, %eax
.LVL338:
	andl	$254, %eax
	movl	(%esp), %edx
#APP
# 82 "src/ioport.h" 1
	outb %al, %dx
# 0 "" 2
#NO_APP
.LBE7401:
.LBE7400:
.LBB7402:
.LBB7386:
.LBB7385:
	.loc 2 92 0
	leal	1(%edi), %edx
.LBE7385:
.LBE7386:
.LBB7387:
.LBB7382:
	.loc 13 27 0
	movl	$64, %edi
.LVL339:
.LBB7381:
	xorl	%ecx, %ecx
	jmp	.L184
.LVL340:
.L186:
.LBE7381:
.LBE7382:
.LBE7387:
.LBE7402:
.LBE7403:
.LBE7439:
.LBB7440:
.LBB7417:
	.loc 13 298 0
	leal	2(%esi), %edx
.LBB7409:
.LBB7410:
	.loc 2 92 0
#APP
# 92 "src/ioport.h" 1
	inb %dx, %al
# 0 "" 2
#NO_APP
	movl	%eax, %edi
.LVL341:
.LBE7410:
.LBE7409:
.LBB7411:
.LBB7412:
	.loc 2 82 0
	movl	%edi, %eax
.LVL342:
	andl	$251, %eax
#APP
# 82 "src/ioport.h" 1
	outb %al, %dx
# 0 "" 2
#NO_APP
.LBE7412:
.LBE7411:
	.loc 13 300 0
	movl	$5, %eax
	movl	%edx, (%esp)
	call	udelay.1730
.LBB7413:
.LBB7414:
	.loc 2 82 0
	movl	%edi, %eax
.LVL343:
	orl	$4, %eax
	movl	(%esp), %edx
#APP
# 82 "src/ioport.h" 1
	outb %al, %dx
# 0 "" 2
#NO_APP
.LBE7414:
.LBE7413:
.LBB7415:
.LBB7416:
	.loc 2 92 0
	leal	1(%esi), %edx
.LVL344:
.L192:
.LBE7416:
.LBE7415:
.LBE7417:
.LBE7440:
.LBB7441:
.LBB7432:
.LBB7428:
.LBB7423:
#APP
# 92 "src/ioport.h" 1
	inb %dx, %al
# 0 "" 2
.LVL345:
#NO_APP
.L195:
.LBE7423:
.LBE7428:
	.loc 13 314 0
	xorl	$72, %eax
.LVL346:
.L194:
	movb	%al, 29(%ebx)
.LBB7429:
.LBB7430:
.LBB7431:
	.loc 14 62 0
	andw	$-2, 36(%ebx)
.LVL347:
.L189:
.LBE7431:
.LBE7430:
.LBE7429:
.LBE7432:
.LBE7441:
	.loc 13 340 0
	popl	%ecx
	.cfi_def_cfa_offset 20
	popl	%ebx
.LVL348:
	popl	%esi
.LVL349:
	popl	%edi
.LVL350:
	popl	%ebp
.LVL351:
	ret
	.cfi_endproc
.LFE1018:
	.size	handle_17, .-handle_17
	.section	.text.rtc_updating.34605,"ax",@progbits
	.type	rtc_updating.34605, @function
rtc_updating.34605:
.LFB1105:
	.loc 7 152 0
	.cfi_startproc
	pushl	%ebp
	.cfi_def_cfa_offset 8
	movl	%esp, %ebp
	.cfi_offset 5, -8
	.cfi_def_cfa_register 5
	pushl	%edi
	pushl	%ebx
	subl	$16, %esp
.LBB7442:
.LBB7443:
.LBB7444:
	.loc 2 82 0
	movb	$-118, %al
#APP
# 82 "src/ioport.h" 1
	outb %al, $112
# 0 "" 2
#NO_APP
.LBE7444:
.LBE7443:
.LBB7445:
.LBB7446:
	.loc 2 92 0
#APP
# 92 "src/ioport.h" 1
	inb $113, %al
# 0 "" 2
.LVL352:
#NO_APP
.LBE7446:
.LBE7445:
.LBE7442:
	.loc 7 161 0
	testb	%al, %al
	jns	.L199
	.cfi_offset 3, -16
	.cfi_offset 7, -12
.LBB7447:
.LBB7448:
.LBB7449:
	.loc 7 135 0
#APP
# 135 "src/clock.c" 1
	movl %CS:cpu_khz, %ecx
# 0 "" 2
.LVL353:
#NO_APP
.LBE7449:
.LBB7450:
.LBB7451:
	.loc 8 85 0
#APP
# 85 "src/util.h" 1
	rdtsc
# 0 "" 2
.LVL354:
#NO_APP
	movl	%eax, -16(%ebp)
	movl	%edx, -12(%ebp)
.LBE7451:
.LBE7450:
	.loc 7 136 0
	movl	$15, %ebx
	movl	%ecx, %eax
	mull	%ebx
	movl	%eax, -24(%ebp)
	movl	%edx, -20(%ebp)
	movl	-16(%ebp), %eax
	movl	-12(%ebp), %edx
	addl	%eax, -24(%ebp)
	adcl	%edx, -20(%ebp)
.LBE7448:
.LBE7447:
.LBB7452:
.LBB7453:
.LBB7454:
	.loc 2 82 0
	movb	$-118, %bl
.L203:
	movb	%bl, %al
#APP
# 82 "src/ioport.h" 1
	outb %al, $112
# 0 "" 2
#NO_APP
.LBE7454:
.LBE7453:
.LBB7455:
.LBB7456:
	.loc 2 92 0
#APP
# 92 "src/ioport.h" 1
	inb $113, %al
# 0 "" 2
.LVL355:
#NO_APP
.LBE7456:
.LBE7455:
.LBE7452:
	.loc 7 165 0
	testb	%al, %al
	jns	.L199
.LBB7457:
.LBB7458:
.LBB7459:
	.loc 8 85 0
#APP
# 85 "src/util.h" 1
	rdtsc
# 0 "" 2
.LVL356:
#NO_APP
	movl	%eax, -16(%ebp)
	movl	%edx, -12(%ebp)
.LBE7459:
.LBE7458:
.LBE7457:
	.loc 7 167 0
	movl	-24(%ebp), %eax
	movl	-20(%ebp), %edx
	subl	%eax, -16(%ebp)
	sbbl	%edx, -12(%ebp)
	cmpl	$0, -12(%ebp)
	jl	.L200
	jg	.L205
	cmpl	$0, -16(%ebp)
	jbe	.L200
.L205:
	orl	$-1, %eax
	jmp	.L202
.L200:
.LBB7460:
.LBB7461:
.LBB7462:
.LBB7463:
	.loc 6 72 0
#APP
# 72 "src/util.c" 1
	sti
nop
rep ; nop
cli
cld

# 0 "" 2
#NO_APP
.LBE7463:
.LBE7462:
.LBE7461:
.LBE7460:
	.loc 7 171 0
	jmp	.L203
.LVL357:
.L199:
	xorl	%eax, %eax
.LVL358:
.L202:
	.loc 7 172 0
	addl	$16, %esp
	popl	%ebx
	popl	%edi
	leave
	ret
	.cfi_endproc
.LFE1105:
	.size	rtc_updating.34605, .-rtc_updating.34605
	.section	.text.handle_70,"ax",@progbits
.globl handle_70
	.type	handle_70, @function
handle_70:
.LFB1130:
	.loc 7 580 0
	.cfi_startproc
	pushl	%ebp
	.cfi_def_cfa_offset 8
	pushl	%edi
	.cfi_def_cfa_offset 12
	pushl	%esi
	.cfi_def_cfa_offset 16
	pushl	%ebx
	.cfi_def_cfa_offset 20
.LBB7464:
.LBB7465:
.LBB7466:
	.loc 2 82 0
	movb	$-117, %al
#APP
# 82 "src/ioport.h" 1
	outb %al, $112
# 0 "" 2
#NO_APP
.LBE7466:
.LBE7465:
.LBB7467:
.LBB7468:
	.loc 2 92 0
#APP
# 92 "src/ioport.h" 1
	inb $113, %al
# 0 "" 2
#NO_APP
	movb	%al, %dl
.LVL359:
.LBE7468:
.LBE7467:
.LBE7464:
.LBB7469:
.LBB7470:
.LBB7471:
	.loc 2 82 0
	movb	$-116, %al
#APP
# 82 "src/ioport.h" 1
	outb %al, $112
# 0 "" 2
#NO_APP
.LBE7471:
.LBE7470:
.LBB7472:
.LBB7473:
	.loc 2 92 0
#APP
# 92 "src/ioport.h" 1
	inb $113, %al
# 0 "" 2
.LVL360:
#NO_APP
.LBE7473:
.LBE7472:
.LBE7469:
	.loc 7 587 0
	andb	$96, %dl
.LVL361:
	je	.L207
	.cfi_offset 3, -20
	.cfi_offset 6, -16
	.cfi_offset 7, -12
	.cfi_offset 5, -8
	.loc 7 589 0
	movzbl	%al, %ebp
	testl	$32, %ebp
	je	.L208
.LBB7474:
	.loc 7 592 0
	xorl	%eax, %eax
.LVL362:
#APP
# 592 "src/clock.c" 1
	pushl %ebp
sti
stc
int $74
pushfl
popl %ecx
cli
cld
popl %ebp
# 0 "" 2
.LVL363:
#NO_APP
.L208:
.LBE7474:
	.loc 7 594 0
	andl	$64, %ebp
	je	.L207
	.loc 7 601 0
	movl	$64, %eax
.LVL364:
#APP
# 601 "src/clock.c" 1
	movw %ax, %ES
# 0 "" 2
#NO_APP
.LBB7475:
#APP
# 601 "src/clock.c" 1
	movb %ES:160, %dl
# 0 "" 2
.LVL365:
#NO_APP
.LBE7475:
	testb	%dl, %dl
	je	.L207
	.loc 7 605 0
#APP
# 605 "src/clock.c" 1
	movw %ax, %ES
# 0 "" 2
#NO_APP
.LBB7476:
#APP
# 605 "src/clock.c" 1
	movl %ES:156, %edx
# 0 "" 2
.LVL366:
#NO_APP
.LBE7476:
	.loc 7 606 0
	cmpl	$976, %edx
	ja	.L209
.LBB7477:
	.loc 7 608 0
#APP
# 608 "src/clock.c" 1
	movw %ax, %ES
# 0 "" 2
#NO_APP
.LBB7478:
#APP
# 608 "src/clock.c" 1
	movl %ES:152, %ecx
# 0 "" 2
.LVL367:
#NO_APP
.LBE7478:
	.loc 7 609 0
	movl	%ecx, %ebp
	shrl	$16, %ebp
	.loc 7 610 0
	movzwl	%cx, %ecx
.LVL368:
	.loc 7 611 0
#APP
# 611 "src/clock.c" 1
	movw %bp, %ES
# 0 "" 2
.LVL369:
#NO_APP
.LBB7479:
#APP
# 611 "src/clock.c" 1
	movb %ES:(%ecx), %dl
# 0 "" 2
.LVL370:
#NO_APP
.LBE7479:
.LBB7480:
	.loc 7 612 0
#APP
# 612 "src/clock.c" 1
	movw %bp, %ES
# 0 "" 2
#NO_APP
	orl	$-128, %edx
#APP
# 612 "src/clock.c" 1
	movb %dl, %ES:(%ecx)
# 0 "" 2
#NO_APP
.LBE7480:
.LBB7481:
.LBB7482:
	.loc 7 512 0
#APP
# 512 "src/clock.c" 1
	movw %ax, %ES
# 0 "" 2
#NO_APP
.LBB7483:
#APP
# 512 "src/clock.c" 1
	movb %ES:160, %dl
# 0 "" 2
.LVL371:
#NO_APP
.LBE7483:
	andb	$1, %dl
	je	.L207
.LBB7484:
	.loc 7 515 0
#APP
# 515 "src/clock.c" 1
	movw %ax, %ES
# 0 "" 2
#NO_APP
	xorl	%edx, %edx
.LVL372:
#APP
# 515 "src/clock.c" 1
	movb %dl, %ES:160
# 0 "" 2
#NO_APP
.LBE7484:
.LBB7485:
.LBB7486:
.LBB7487:
.LBB7488:
	.loc 10 249 0
#APP
# 249 "src/biosvar.h" 1
	movw %ax, %ES
# 0 "" 2
#NO_APP
.LBB7489:
#APP
# 249 "src/biosvar.h" 1
	movw %ES:14, %dx
# 0 "" 2
.LVL373:
#NO_APP
.LBE7489:
.LBE7488:
.LBE7487:
	.loc 7 486 0
#APP
# 486 "src/clock.c" 1
	movw %dx, %ES
# 0 "" 2
#NO_APP
.LBB7490:
#APP
# 486 "src/clock.c" 1
	movl %ES:298, %eax
# 0 "" 2
.LVL374:
#NO_APP
.LBE7490:
.LBB7491:
	.loc 7 487 0
	leal	-1(%eax), %ecx
.LVL375:
#APP
# 487 "src/clock.c" 1
	movw %dx, %ES
# 0 "" 2
# 487 "src/clock.c" 1
	movl %ecx, %ES:298
# 0 "" 2
#NO_APP
.LBE7491:
	.loc 7 488 0
	decl	%eax
.LVL376:
	jne	.L207
.LBB7492:
.LBB7493:
.LBB7494:
	.loc 2 82 0
	movb	$-117, %dl
.LVL377:
	movb	%dl, %al
#APP
# 82 "src/ioport.h" 1
	outb %al, $112
# 0 "" 2
#NO_APP
.LBE7494:
.LBE7493:
.LBB7495:
.LBB7496:
	.loc 2 92 0
#APP
# 92 "src/ioport.h" 1
	inb $113, %al
# 0 "" 2
#NO_APP
	movb	%al, %cl
.LVL378:
.LBE7496:
.LBE7495:
.LBE7492:
.LBB7497:
.LBB7498:
.LBB7499:
	.loc 2 82 0
	movb	%dl, %al
#APP
# 82 "src/ioport.h" 1
	outb %al, $112
# 0 "" 2
#NO_APP
.LBE7499:
.LBE7498:
.LBB7500:
.LBB7501:
	movl	%ecx, %eax
.LVL379:
	andl	$191, %eax
#APP
# 82 "src/ioport.h" 1
	outb %al, $113
# 0 "" 2
#NO_APP
	jmp	.L207
.LVL380:
.L209:
.LBE7501:
.LBE7500:
.LBE7497:
.LBE7486:
.LBE7485:
.LBE7482:
.LBE7481:
.LBE7477:
	.loc 7 617 0
	subl	$977, %edx
.LVL381:
.LBB7502:
	.loc 7 618 0
#APP
# 618 "src/clock.c" 1
	movw %ax, %ES
# 0 "" 2
# 618 "src/clock.c" 1
	movl %edx, %ES:156
# 0 "" 2
.LVL382:
#NO_APP
.L207:
.LBE7502:
.LBB7503:
.LBB7504:
.LBB7505:
	.loc 2 82 0
	movb	$32, %al
.LVL383:
#APP
# 82 "src/ioport.h" 1
	outb %al, $160
# 0 "" 2
#NO_APP
.LBE7505:
.LBE7504:
.LBB7506:
.LBB7507:
.LBB7508:
#APP
# 82 "src/ioport.h" 1
	outb %al, $32
# 0 "" 2
#NO_APP
.LBE7508:
.LBE7507:
.LBE7506:
.LBE7503:
	.loc 7 623 0
	popl	%ebx
	popl	%esi
	popl	%edi
	popl	%ebp
.LVL384:
	ret
	.cfi_endproc
.LFE1130:
	.size	handle_70, .-handle_70
	.section	.text.handle_1ab1.1754,"ax",@progbits
	.type	handle_1ab1.1754, @function
handle_1ab1.1754:
.LFB1829:
	.file 15 "src/pcibios.c"
	.loc 15 177 0
	.cfi_startproc
.LVL385:
	pushl	%ebp
	.cfi_def_cfa_offset 8
	pushl	%edi
	.cfi_def_cfa_offset 12
	pushl	%esi
	.cfi_def_cfa_offset 16
	pushl	%ebx
	.cfi_def_cfa_offset 20
	subl	$4, %esp
	.cfi_def_cfa_offset 24
	movl	%eax, %ebx
	.cfi_offset 3, -20
	.cfi_offset 6, -16
	.cfi_offset 7, -12
	.cfi_offset 5, -8
	.loc 15 185 0
	movb	28(%eax), %al
.LVL386:
	cmpb	$9, %al
	je	.L217
	ja	.L223
	cmpb	$2, %al
	je	.L214
	ja	.L224
	decb	%al
	jne	.L212
	jmp	.L250
.L224:
	cmpb	$3, %al
	je	.L215
	cmpb	$8, %al
	jne	.L212
	jmp	.L251
.L223:
	cmpb	$12, %al
	je	.L220
	ja	.L225
	cmpb	$10, %al
	je	.L218
	cmpb	$11, %al
	jne	.L212
	jmp	.L252
.L225:
	cmpb	$13, %al
	je	.L221
	cmpb	$14, %al
	jne	.L212
	jmp	.L253
.L250:
.LBB7509:
.LBB7510:
	.loc 15 30 0
	movl	$256, (%esp)
.LVL387:
	movl	%esp, %edx
	xorl	%eax, %eax
	jmp	.L243
.LVL388:
.L227:
	incl	%eax
.LVL389:
	movl	%esp, %edx
.L243:
	call	pci_next.19998
	testl	%eax, %eax
.LVL390:
	jns	.L227
	.loc 15 33 0
	movb	$1, 28(%ebx)
	.loc 15 34 0
	movw	$528, 16(%ebx)
	.loc 15 35 0
	movl	(%esp), %eax
.LVL391:
	decl	%eax
	shrw	$8, %ax
	movb	%al, 24(%ebx)
	.loc 15 36 0
	movl	$541672272, 20(%ebx)
	.loc 15 37 0
	movl	$pcibios32_entry+983040, 4(%ebx)
	jmp	.L241
.LVL392:
.L214:
.LBE7510:
.LBE7509:
.LBB7511:
.LBB7512:
	.loc 15 45 0
	movzwl	24(%ebx), %edi
.LVL393:
	sall	$16, %edi
	movzwl	20(%ebx), %eax
	orl	%eax, %edi
	.loc 15 46 0
	movzwl	8(%ebx), %esi
.LVL394:
	.loc 15 48 0
	movl	$256, (%esp)
.LVL395:
	movl	%esp, %edx
	xorl	%eax, %eax
	jmp	.L244
.LVL396:
.L232:
.LBB7513:
.LBB7514:
.LBB7515:
.LBB7516:
	.loc 2 88 0
	movzwl	%cx, %eax
.LVL397:
	sall	$8, %eax
	orl	$-2147483648, %eax
	movl	$3320, %edx
#APP
# 88 "src/ioport.h" 1
	outl %eax, %dx
# 0 "" 2
#NO_APP
.LBE7516:
.LBE7515:
.LBB7517:
.LBB7518:
	.loc 2 102 0
	movb	$-4, %dl
#APP
# 102 "src/ioport.h" 1
	inl %dx, %eax
# 0 "" 2
.LVL398:
#NO_APP
.LBE7518:
.LBE7517:
.LBE7514:
	.loc 15 50 0
	cmpl	%edi, %eax
	jne	.L230
	.loc 15 52 0
	testl	%esi, %esi
	je	.L235
	decl	%esi
.L230:
.LBE7513:
	.loc 15 48 0
	leal	1(%ecx), %eax
.LVL399:
	movl	%esp, %edx
.L244:
	call	pci_next.19998
.LVL400:
	movl	%eax, %ecx
.LVL401:
	testl	%eax, %eax
	jns	.L232
.LVL402:
	jmp	.L242
.LVL403:
.L215:
.LBE7512:
.LBE7511:
.LBB7519:
.LBB7520:
	.loc 15 65 0
	movzwl	8(%ebx), %esi
.LVL404:
	.loc 15 66 0
	movl	24(%ebx), %ebp
.LVL405:
	.loc 15 68 0
	movl	$256, (%esp)
.LVL406:
	movl	%esp, %edx
	xorl	%eax, %eax
	jmp	.L245
.LVL407:
.L236:
.LBB7521:
.LBB7522:
.LBB7523:
.LBB7524:
	.loc 2 88 0
	movzwl	%cx, %eax
.LVL408:
	sall	$8, %eax
	orl	$-2147483640, %eax
	movl	$3320, %edx
#APP
# 88 "src/ioport.h" 1
	outl %eax, %dx
# 0 "" 2
#NO_APP
.LBE7524:
.LBE7523:
.LBB7525:
.LBB7526:
	.loc 2 102 0
	movb	$-4, %dl
#APP
# 102 "src/ioport.h" 1
	inl %dx, %eax
# 0 "" 2
#NO_APP
.LBE7526:
.LBE7525:
.LBE7522:
	.loc 15 70 0
	shrl	$8, %eax
	cmpl	%ebp, %eax
	jne	.L234
	.loc 15 72 0
	testl	%esi, %esi
	je	.L235
	decl	%esi
	jmp	.L234
.LVL409:
.L235:
	.loc 15 74 0
	movw	%cx, 16(%ebx)
	jmp	.L241
.LVL410:
.L234:
.LBE7521:
	.loc 15 68 0
	leal	1(%ecx), %eax
	movl	%esp, %edx
.L245:
	call	pci_next.19998
.LVL411:
	movl	%eax, %ecx
.LVL412:
	testl	%eax, %eax
	jns	.L236
.LVL413:
.L242:
.LBB7527:
.LBB7528:
.LBB7529:
.LBB7530:
	.loc 14 90 0
	movb	$-122, 29(%ebx)
	jmp	.L240
.LVL414:
.L251:
.LBE7530:
.LBE7529:
.LBE7528:
.LBE7527:
.LBE7520:
.LBE7519:
.LBB7531:
.LBB7532:
	.loc 15 85 0
	movw	4(%ebx), %cx
.LBB7533:
.LBB7534:
.LBB7535:
	.loc 2 88 0
	movl	%ecx, %eax
	andl	$252, %eax
	orl	$-2147483648, %eax
	movzwl	16(%ebx), %edx
	sall	$8, %edx
	orl	%edx, %eax
	movl	$3320, %edx
#APP
# 88 "src/ioport.h" 1
	outl %eax, %dx
# 0 "" 2
#NO_APP
.LBE7535:
.LBE7534:
.LBB7536:
.LBB7537:
	.loc 2 92 0
	andl	$3, %ecx
	leal	3324(%ecx), %edx
#APP
# 92 "src/ioport.h" 1
	inb %dx, %al
# 0 "" 2
.LVL415:
#NO_APP
.LBE7537:
.LBE7536:
.LBE7533:
	.loc 15 85 0
	movb	%al, 24(%ebx)
	jmp	.L241
.LVL416:
.L217:
.LBE7532:
.LBE7531:
.LBB7538:
.LBB7539:
	.loc 15 93 0
	movw	4(%ebx), %cx
.LBB7540:
.LBB7541:
.LBB7542:
	.loc 2 88 0
	movl	%ecx, %eax
	andl	$252, %eax
	orl	$-2147483648, %eax
	movzwl	16(%ebx), %edx
	sall	$8, %edx
	orl	%edx, %eax
	movl	$3320, %edx
#APP
# 88 "src/ioport.h" 1
	outl %eax, %dx
# 0 "" 2
#NO_APP
.LBE7542:
.LBE7541:
.LBB7543:
.LBB7544:
	.loc 2 97 0
	andl	$2, %ecx
	leal	3324(%ecx), %edx
#APP
# 97 "src/ioport.h" 1
	inw %dx, %ax
# 0 "" 2
.LVL417:
#NO_APP
.LBE7544:
.LBE7543:
.LBE7540:
	.loc 15 93 0
	movw	%ax, 24(%ebx)
	jmp	.L241
.LVL418:
.L218:
.LBE7539:
.LBE7538:
.LBB7545:
.LBB7546:
.LBB7547:
.LBB7548:
.LBB7549:
	.loc 2 88 0
	movzwl	4(%ebx), %eax
	andl	$252, %eax
	orl	$-2147483648, %eax
	movzwl	16(%ebx), %edx
	sall	$8, %edx
	orl	%edx, %eax
	movl	$3320, %edx
#APP
# 88 "src/ioport.h" 1
	outl %eax, %dx
# 0 "" 2
#NO_APP
.LBE7549:
.LBE7548:
.LBB7550:
.LBB7551:
	.loc 2 102 0
	movb	$-4, %dl
#APP
# 102 "src/ioport.h" 1
	inl %dx, %eax
# 0 "" 2
.LVL419:
#NO_APP
.LBE7551:
.LBE7550:
.LBE7547:
	.loc 15 101 0
	movl	%eax, 24(%ebx)
	jmp	.L241
.LVL420:
.L252:
.LBE7546:
.LBE7545:
.LBB7552:
.LBB7553:
	.loc 15 109 0
	movw	4(%ebx), %cx
.LBB7554:
.LBB7555:
.LBB7556:
	.loc 2 88 0
	movl	%ecx, %eax
	andl	$252, %eax
	orl	$-2147483648, %eax
	movzwl	16(%ebx), %edx
	sall	$8, %edx
	orl	%edx, %eax
	movl	$3320, %edx
#APP
# 88 "src/ioport.h" 1
	outl %eax, %dx
# 0 "" 2
#NO_APP
.LBE7556:
.LBE7555:
.LBB7557:
.LBB7558:
	.loc 2 82 0
	movb	24(%ebx), %al
	andl	$3, %ecx
	leal	3324(%ecx), %edx
#APP
# 82 "src/ioport.h" 1
	outb %al, %dx
# 0 "" 2
#NO_APP
	jmp	.L241
.L220:
.LBE7558:
.LBE7557:
.LBE7554:
.LBE7553:
.LBE7552:
.LBB7559:
.LBB7560:
	.loc 15 117 0
	movw	4(%ebx), %cx
.LBB7561:
.LBB7562:
.LBB7563:
	.loc 2 88 0
	movl	%ecx, %eax
	andl	$252, %eax
	orl	$-2147483648, %eax
	movzwl	16(%ebx), %edx
	sall	$8, %edx
	orl	%edx, %eax
	movl	$3320, %edx
#APP
# 88 "src/ioport.h" 1
	outl %eax, %dx
# 0 "" 2
#NO_APP
.LBE7563:
.LBE7562:
.LBB7564:
.LBB7565:
	.loc 2 85 0
	movw	24(%ebx), %ax
	andl	$2, %ecx
	leal	3324(%ecx), %edx
#APP
# 85 "src/ioport.h" 1
	outw %ax, %dx
# 0 "" 2
#NO_APP
	jmp	.L241
.L221:
.LBE7565:
.LBE7564:
.LBE7561:
.LBE7560:
.LBE7559:
.LBB7566:
.LBB7567:
.LBB7568:
.LBB7569:
	.loc 2 88 0
	movzwl	4(%ebx), %eax
	andl	$252, %eax
	orl	$-2147483648, %eax
	movzwl	16(%ebx), %edx
	sall	$8, %edx
	orl	%edx, %eax
	movl	$3320, %edx
#APP
# 88 "src/ioport.h" 1
	outl %eax, %dx
# 0 "" 2
#NO_APP
.LBE7569:
.LBE7568:
.LBB7570:
.LBB7571:
	movl	24(%ebx), %eax
	movb	$-4, %dl
#APP
# 88 "src/ioport.h" 1
	outl %eax, %dx
# 0 "" 2
#NO_APP
	jmp	.L241
.L253:
.LBE7571:
.LBE7570:
.LBE7567:
.LBE7566:
.LBB7572:
.LBB7573:
.LBB7574:
	.loc 15 133 0
#APP
# 133 "src/pcibios.c" 1
	movw %CS:PirOffset, %dx
# 0 "" 2
.LVL421:
#NO_APP
.LBE7574:
	movzwl	%dx, %edx
.LVL422:
	.loc 15 134 0
	testl	%edx, %edx
	je	.L212
	.loc 15 143 0
	movzwl	4(%ebx), %eax
.LVL423:
	.loc 15 146 0
	movw	2(%ebx), %si
#APP
# 146 "src/pcibios.c" 1
	movw %si, %ES
# 0 "" 2
#NO_APP
.LBB7575:
#APP
# 146 "src/pcibios.c" 1
	movw %ES:(%eax), %di
# 0 "" 2
.LVL424:
#NO_APP
.LBE7575:
.LBB7576:
	.loc 15 147 0
#APP
# 147 "src/pcibios.c" 1
	movw %CS:6(%edx), %cx
# 0 "" 2
.LVL425:
#NO_APP
.LBE7576:
	subl	$32, %ecx
.LVL426:
.LBB7577:
	.loc 15 148 0
#APP
# 148 "src/pcibios.c" 1
	movw %si, %ES
# 0 "" 2
# 148 "src/pcibios.c" 1
	movw %cx, %ES:(%eax)
# 0 "" 2
#NO_APP
.LBE7577:
	.loc 15 149 0
	cmpw	%cx, %di
	jae	.L238
.LBB7578:
.LBB7579:
.LBB7580:
.LBB7581:
	.loc 14 90 0
	movb	$-119, 29(%ebx)
	jmp	.L240
.L238:
.LBE7581:
.LBE7580:
.LBE7579:
.LBE7578:
	.loc 15 155 0
#APP
# 155 "src/pcibios.c" 1
	movw %si, %ES
# 0 "" 2
#NO_APP
.LBB7582:
#APP
# 155 "src/pcibios.c" 1
	movw %ES:2(%eax), %di
# 0 "" 2
.LVL427:
#NO_APP
.LBE7582:
	.loc 15 156 0
#APP
# 156 "src/pcibios.c" 1
	movw %si, %ES
# 0 "" 2
#NO_APP
.LBB7583:
#APP
# 156 "src/pcibios.c" 1
	movw %ES:4(%eax), %si
# 0 "" 2
.LVL428:
#NO_APP
.LBE7583:
.LBB7584:
.LBB7585:
	.loc 10 296 0
#APP
# 296 "src/biosvar.h" 1
	movw %CS, %ax
# 0 "" 2
.LVL429:
#NO_APP
.LBE7585:
.LBE7584:
.LBB7586:
.LBB7587:
	.loc 6 185 0
#APP
# 185 "src/util.c" 1
	movw %si, %ES
# 0 "" 2
	.loc 6 187 0
#NO_APP
	movzwl	%cx, %ecx
.LVL430:
	leal	32(%edx), %esi
.LVL431:
	movzwl	%di, %edi
.LVL432:
#APP
# 187 "src/util.c" 1
	movw %ds, %bp
movw %ax, %ds
rep movsb (%si),%es:(%di)
movw %bp, %ds
# 0 "" 2
.LVL433:
#NO_APP
.LBE7587:
.LBE7586:
.LBB7588:
	.loc 15 165 0
#APP
# 165 "src/pcibios.c" 1
	movw %CS:10(%edx), %ax
# 0 "" 2
.LVL434:
#NO_APP
.LBE7588:
	movw	%ax, 16(%ebx)
.LVL435:
.L241:
.LBB7589:
.LBB7590:
	.loc 14 77 0
	movb	$0, 29(%ebx)
.LBB7591:
.LBB7592:
	.loc 14 62 0
	andw	$-2, 36(%ebx)
	jmp	.L239
.LVL436:
.L212:
.LBE7592:
.LBE7591:
.LBE7590:
.LBE7589:
.LBE7573:
.LBE7572:
.LBB7593:
.LBB7594:
.LBB7595:
.LBB7596:
.LBB7597:
.LBB7598:
	.loc 14 90 0
	movb	$-127, 29(%ebx)
.LVL437:
.L240:
.LBB7599:
.LBB7600:
	.loc 14 60 0
	orw	$1, 36(%ebx)
.LVL438:
.L239:
.LBE7600:
.LBE7599:
.LBE7598:
.LBE7597:
.LBE7596:
.LBE7595:
.LBE7594:
.LBE7593:
	.loc 15 198 0
	popl	%ebx
	.cfi_def_cfa_offset 20
.LVL439:
	popl	%ebx
	popl	%esi
.LVL440:
	popl	%edi
.LVL441:
	popl	%ebp
.LVL442:
	ret
	.cfi_endproc
.LFE1829:
	.size	handle_1ab1.1754, .-handle_1ab1.1754
	.section	.text.handle_1a,"ax",@progbits
.globl handle_1a
	.type	handle_1a, @function
handle_1a:
.LFB1119:
	.loc 7 420 0
	.cfi_startproc
.LVL443:
	pushl	%esi
	.cfi_def_cfa_offset 8
	pushl	%ebx
	.cfi_def_cfa_offset 12
	movl	%eax, %ebx
	.cfi_offset 3, -12
	.cfi_offset 6, -8
	.loc 7 422 0
	movb	29(%eax), %al
.LVL444:
	cmpb	$4, %al
	je	.L260
	ja	.L265
	cmpb	$1, %al
	je	.L257
	jb	.L256
	cmpb	$2, %al
	je	.L258
	cmpb	$3, %al
	jne	.L255
	jmp	.L280
.L265:
	cmpb	$6, %al
	je	.L262
	jb	.L261
	cmpb	$7, %al
	je	.L263
	cmpb	$-79, %al
	jne	.L255
	jmp	.L281
.L256:
.LBB7601:
.LBB7602:
.LBB7603:
.LBB7604:
.LBB7605:
.LBB7606:
	.loc 6 72 0
#APP
# 72 "src/util.c" 1
	sti
nop
rep ; nop
cli
cld

# 0 "" 2
#NO_APP
.LBE7606:
.LBE7605:
.LBE7604:
.LBE7603:
	.loc 7 231 0
	movl	$64, %eax
#APP
# 231 "src/clock.c" 1
	movw %ax, %ES
# 0 "" 2
#NO_APP
.LBB7607:
#APP
# 231 "src/clock.c" 1
	movl %ES:108, %edx
# 0 "" 2
.LVL445:
#NO_APP
.LBE7607:
	.loc 7 232 0
	movl	%edx, %ecx
	shrl	$16, %ecx
	movw	%cx, 24(%ebx)
	.loc 7 233 0
	movw	%dx, 20(%ebx)
	.loc 7 234 0
#APP
# 234 "src/clock.c" 1
	movw %ax, %ES
# 0 "" 2
#NO_APP
.LBB7608:
#APP
# 234 "src/clock.c" 1
	movb %ES:112, %dl
# 0 "" 2
.LVL446:
#NO_APP
.LBE7608:
	movb	%dl, 28(%ebx)
.LBB7609:
	.loc 7 235 0
#APP
# 235 "src/clock.c" 1
	movw %ax, %ES
# 0 "" 2
#NO_APP
	xorl	%eax, %eax
#APP
# 235 "src/clock.c" 1
	movb %al, %ES:112
# 0 "" 2
#NO_APP
	jmp	.L274
.LVL447:
.L257:
.LBE7609:
.LBE7602:
.LBE7601:
.LBB7610:
.LBB7611:
	.loc 7 243 0
	movzwl	24(%ebx), %eax
.LVL448:
	sall	$16, %eax
	movzwl	20(%ebx), %edx
	orl	%edx, %eax
.LBB7612:
	.loc 7 244 0
	movl	$64, %edx
#APP
# 244 "src/clock.c" 1
	movw %dx, %ES
# 0 "" 2
# 244 "src/clock.c" 1
	movl %eax, %ES:108
# 0 "" 2
#NO_APP
.LBE7612:
.LBB7613:
	.loc 7 245 0
#APP
# 245 "src/clock.c" 1
	movw %dx, %ES
# 0 "" 2
#NO_APP
	xorl	%eax, %eax
.LVL449:
#APP
# 245 "src/clock.c" 1
	movb %al, %ES:112
# 0 "" 2
#NO_APP
.LBE7613:
	.loc 7 247 0
	movb	$0, 29(%ebx)
	jmp	.L274
.L258:
.LBE7611:
.LBE7610:
.LBB7614:
.LBB7615:
	.loc 7 255 0
	call	rtc_updating.34605
	testl	%eax, %eax
	jne	.L255
.LBB7616:
.LBB7617:
.LBB7618:
	.loc 2 82 0
	movb	$-128, %al
#APP
# 82 "src/ioport.h" 1
	outb %al, $112
# 0 "" 2
#NO_APP
.LBE7618:
.LBE7617:
.LBB7619:
.LBB7620:
	.loc 2 92 0
#APP
# 92 "src/ioport.h" 1
	inb $113, %al
# 0 "" 2
.LVL450:
#NO_APP
.LBE7620:
.LBE7619:
.LBE7616:
	.loc 7 260 0
	movb	%al, 21(%ebx)
.LBB7621:
.LBB7622:
.LBB7623:
	.loc 2 82 0
	movb	$-126, %al
.LVL451:
#APP
# 82 "src/ioport.h" 1
	outb %al, $112
# 0 "" 2
#NO_APP
.LBE7623:
.LBE7622:
.LBB7624:
.LBB7625:
	.loc 2 92 0
#APP
# 92 "src/ioport.h" 1
	inb $113, %al
# 0 "" 2
.LVL452:
#NO_APP
.LBE7625:
.LBE7624:
.LBE7621:
	.loc 7 261 0
	movb	%al, 24(%ebx)
.LBB7626:
.LBB7627:
.LBB7628:
	.loc 2 82 0
	movb	$-124, %al
.LVL453:
#APP
# 82 "src/ioport.h" 1
	outb %al, $112
# 0 "" 2
#NO_APP
.LBE7628:
.LBE7627:
.LBB7629:
.LBB7630:
	.loc 2 92 0
#APP
# 92 "src/ioport.h" 1
	inb $113, %al
# 0 "" 2
#NO_APP
	movb	%al, %dl
.LVL454:
.LBE7630:
.LBE7629:
.LBE7626:
	.loc 7 262 0
	movb	%al, 25(%ebx)
.LBB7631:
.LBB7632:
.LBB7633:
	.loc 2 82 0
	movb	$-117, %al
#APP
# 82 "src/ioport.h" 1
	outb %al, $112
# 0 "" 2
#NO_APP
.LBE7633:
.LBE7632:
.LBB7634:
.LBB7635:
	.loc 2 92 0
#APP
# 92 "src/ioport.h" 1
	inb $113, %al
# 0 "" 2
#NO_APP
.LBE7635:
.LBE7634:
.LBE7631:
	.loc 7 263 0
	andl	$1, %eax
	movb	%al, 20(%ebx)
	jmp	.L276
.LVL455:
.L280:
.LBE7615:
.LBE7614:
.LBB7636:
.LBB7637:
	.loc 7 283 0
	call	rtc_updating.34605
	testl	%eax, %eax
	je	.L268
.LBB7638:
.LBB7639:
.LBB7640:
.LBB7641:
.LBB7642:
	.loc 2 82 0
	movb	$-118, %al
#APP
# 82 "src/ioport.h" 1
	outb %al, $112
# 0 "" 2
#NO_APP
.LBE7642:
.LBE7641:
.LBB7643:
.LBB7644:
	movb	$38, %al
#APP
# 82 "src/ioport.h" 1
	outb %al, $113
# 0 "" 2
#NO_APP
.LBE7644:
.LBE7643:
.LBE7640:
.LBB7645:
.LBB7646:
.LBB7647:
	movb	$-117, %cl
	movb	%cl, %al
#APP
# 82 "src/ioport.h" 1
	outb %al, $112
# 0 "" 2
#NO_APP
.LBE7647:
.LBE7646:
.LBB7648:
.LBB7649:
	.loc 2 92 0
#APP
# 92 "src/ioport.h" 1
	inb $113, %al
# 0 "" 2
#NO_APP
	movb	%al, %dl
.LBE7649:
.LBE7648:
.LBE7645:
.LBB7650:
.LBB7651:
.LBB7652:
	.loc 2 82 0
	movb	%cl, %al
#APP
# 82 "src/ioport.h" 1
	outb %al, $112
# 0 "" 2
#NO_APP
.LBE7652:
.LBE7651:
.LBB7653:
.LBB7654:
	andl	$1, %edx
	orl	$2, %edx
	movb	%dl, %al
#APP
# 82 "src/ioport.h" 1
	outb %al, $113
# 0 "" 2
#NO_APP
.LBE7654:
.LBE7653:
.LBE7650:
.LBB7655:
.LBB7656:
.LBB7657:
	movb	$-116, %al
#APP
# 82 "src/ioport.h" 1
	outb %al, $112
# 0 "" 2
#NO_APP
.LBE7657:
.LBE7656:
.LBB7658:
.LBB7659:
	.loc 2 92 0
#APP
# 92 "src/ioport.h" 1
	inb $113, %al
# 0 "" 2
.LVL456:
#NO_APP
.LBE7659:
.LBE7658:
.LBE7655:
.LBB7660:
.LBB7661:
.LBB7662:
	.loc 2 82 0
	movb	$-115, %al
.LVL457:
#APP
# 82 "src/ioport.h" 1
	outb %al, $112
# 0 "" 2
#NO_APP
.LBE7662:
.LBE7661:
.LBB7663:
.LBB7664:
	.loc 2 92 0
#APP
# 92 "src/ioport.h" 1
	inb $113, %al
# 0 "" 2
.LVL458:
#NO_APP
.L268:
.LBE7664:
.LBE7663:
.LBE7660:
.LBE7639:
.LBE7638:
.LBB7665:
.LBB7666:
.LBB7667:
	.loc 2 82 0
	movb	$-128, %al
.LVL459:
#APP
# 82 "src/ioport.h" 1
	outb %al, $112
# 0 "" 2
#NO_APP
.LBE7667:
.LBE7666:
.LBB7668:
.LBB7669:
	movb	21(%ebx), %al
#APP
# 82 "src/ioport.h" 1
	outb %al, $113
# 0 "" 2
#NO_APP
.LBE7669:
.LBE7668:
.LBE7665:
.LBB7670:
.LBB7671:
.LBB7672:
	movb	$-126, %al
#APP
# 82 "src/ioport.h" 1
	outb %al, $112
# 0 "" 2
#NO_APP
.LBE7672:
.LBE7671:
.LBB7673:
.LBB7674:
	movb	24(%ebx), %al
#APP
# 82 "src/ioport.h" 1
	outb %al, $113
# 0 "" 2
#NO_APP
.LBE7674:
.LBE7673:
.LBE7670:
.LBB7675:
.LBB7676:
.LBB7677:
	movb	$-124, %al
#APP
# 82 "src/ioport.h" 1
	outb %al, $112
# 0 "" 2
#NO_APP
.LBE7677:
.LBE7676:
.LBB7678:
.LBB7679:
	movb	25(%ebx), %al
#APP
# 82 "src/ioport.h" 1
	outb %al, $113
# 0 "" 2
#NO_APP
.LBE7679:
.LBE7678:
.LBE7675:
.LBB7680:
.LBB7681:
.LBB7682:
	movb	$-117, %cl
	movb	%cl, %al
#APP
# 82 "src/ioport.h" 1
	outb %al, $112
# 0 "" 2
#NO_APP
.LBE7682:
.LBE7681:
.LBB7683:
.LBB7684:
	.loc 2 92 0
#APP
# 92 "src/ioport.h" 1
	inb $113, %al
# 0 "" 2
#NO_APP
.LBE7684:
.LBE7683:
.LBE7680:
	.loc 7 292 0
	movb	20(%ebx), %dl
.LVL460:
	andl	$1, %edx
.LVL461:
	orl	$2, %edx
.LVL462:
	andl	$96, %eax
	orl	%eax, %edx
.LVL463:
	jmp	.L277
.LVL464:
.L260:
.LBE7637:
.LBE7636:
.LBB7685:
.LBB7686:
	.loc 7 303 0
	movb	$0, 29(%ebx)
	.loc 7 304 0
	call	rtc_updating.34605
	testl	%eax, %eax
	jne	.L255
.LBB7687:
.LBB7688:
.LBB7689:
	.loc 2 82 0
	movb	$-119, %al
#APP
# 82 "src/ioport.h" 1
	outb %al, $112
# 0 "" 2
#NO_APP
.LBE7689:
.LBE7688:
.LBB7690:
.LBB7691:
	.loc 2 92 0
#APP
# 92 "src/ioport.h" 1
	inb $113, %al
# 0 "" 2
.LVL465:
#NO_APP
.LBE7691:
.LBE7690:
.LBE7687:
	.loc 7 308 0
	movb	%al, 24(%ebx)
.LBB7692:
.LBB7693:
.LBB7694:
	.loc 2 82 0
	movb	$-120, %al
.LVL466:
#APP
# 82 "src/ioport.h" 1
	outb %al, $112
# 0 "" 2
#NO_APP
.LBE7694:
.LBE7693:
.LBB7695:
.LBB7696:
	.loc 2 92 0
#APP
# 92 "src/ioport.h" 1
	inb $113, %al
# 0 "" 2
.LVL467:
#NO_APP
.LBE7696:
.LBE7695:
.LBE7692:
	.loc 7 309 0
	movb	%al, 21(%ebx)
.LBB7697:
.LBB7698:
.LBB7699:
	.loc 2 82 0
	movb	$-121, %al
.LVL468:
#APP
# 82 "src/ioport.h" 1
	outb %al, $112
# 0 "" 2
#NO_APP
.LBE7699:
.LBE7698:
.LBB7700:
.LBB7701:
	.loc 2 92 0
#APP
# 92 "src/ioport.h" 1
	inb $113, %al
# 0 "" 2
.LVL469:
#NO_APP
.LBE7701:
.LBE7700:
.LBE7697:
	.loc 7 310 0
	movb	%al, 20(%ebx)
.LBB7702:
.LBB7703:
.LBB7704:
	.loc 2 82 0
	movb	$-78, %al
.LVL470:
#APP
# 82 "src/ioport.h" 1
	outb %al, $112
# 0 "" 2
#NO_APP
.LBE7704:
.LBE7703:
.LBB7705:
.LBB7706:
	.loc 2 92 0
#APP
# 92 "src/ioport.h" 1
	inb $113, %al
# 0 "" 2
.LVL471:
#NO_APP
.LBE7706:
.LBE7705:
.LBE7702:
	.loc 7 317 0
	movb	%al, 25(%ebx)
	.loc 7 319 0
	movb	%al, 28(%ebx)
	jmp	.L274
.LVL472:
.L261:
.LBE7686:
.LBE7685:
.LBB7707:
.LBB7708:
	.loc 7 337 0
	call	rtc_updating.34605
	testl	%eax, %eax
	je	.L270
.LBB7709:
.LBB7710:
.LBB7711:
.LBB7712:
.LBB7713:
	.loc 2 82 0
	movb	$-118, %al
#APP
# 82 "src/ioport.h" 1
	outb %al, $112
# 0 "" 2
#NO_APP
.LBE7713:
.LBE7712:
.LBB7714:
.LBB7715:
	movb	$38, %al
#APP
# 82 "src/ioport.h" 1
	outb %al, $113
# 0 "" 2
#NO_APP
.LBE7715:
.LBE7714:
.LBE7711:
.LBB7716:
.LBB7717:
.LBB7718:
	movb	$-117, %cl
	movb	%cl, %al
#APP
# 82 "src/ioport.h" 1
	outb %al, $112
# 0 "" 2
#NO_APP
.LBE7718:
.LBE7717:
.LBB7719:
.LBB7720:
	.loc 2 92 0
#APP
# 92 "src/ioport.h" 1
	inb $113, %al
# 0 "" 2
#NO_APP
	movb	%al, %dl
.LBE7720:
.LBE7719:
.LBE7716:
.LBB7721:
.LBB7722:
.LBB7723:
	.loc 2 82 0
	movb	%cl, %al
#APP
# 82 "src/ioport.h" 1
	outb %al, $112
# 0 "" 2
#NO_APP
.LBE7723:
.LBE7722:
.LBB7724:
.LBB7725:
	andl	$1, %edx
	orl	$2, %edx
	movb	%dl, %al
#APP
# 82 "src/ioport.h" 1
	outb %al, $113
# 0 "" 2
#NO_APP
.LBE7725:
.LBE7724:
.LBE7721:
.LBB7726:
.LBB7727:
.LBB7728:
	movb	$-116, %al
#APP
# 82 "src/ioport.h" 1
	outb %al, $112
# 0 "" 2
#NO_APP
.LBE7728:
.LBE7727:
.LBB7729:
.LBB7730:
	.loc 2 92 0
#APP
# 92 "src/ioport.h" 1
	inb $113, %al
# 0 "" 2
.LVL473:
#NO_APP
.LBE7730:
.LBE7729:
.LBE7726:
.LBB7731:
.LBB7732:
.LBB7733:
	.loc 2 82 0
	movb	$-115, %al
.LVL474:
#APP
# 82 "src/ioport.h" 1
	outb %al, $112
# 0 "" 2
#NO_APP
.LBE7733:
.LBE7732:
.LBB7734:
.LBB7735:
	.loc 2 92 0
#APP
# 92 "src/ioport.h" 1
	inb $113, %al
# 0 "" 2
.LVL475:
#NO_APP
	jmp	.L255
.LVL476:
.L270:
.LBE7735:
.LBE7734:
.LBE7731:
.LBE7710:
.LBE7709:
.LBB7736:
.LBB7737:
.LBB7738:
	.loc 2 82 0
	movb	$-119, %al
#APP
# 82 "src/ioport.h" 1
	outb %al, $112
# 0 "" 2
#NO_APP
.LBE7738:
.LBE7737:
.LBB7739:
.LBB7740:
	movb	24(%ebx), %al
#APP
# 82 "src/ioport.h" 1
	outb %al, $113
# 0 "" 2
#NO_APP
.LBE7740:
.LBE7739:
.LBE7736:
.LBB7741:
.LBB7742:
.LBB7743:
	movb	$-120, %al
#APP
# 82 "src/ioport.h" 1
	outb %al, $112
# 0 "" 2
#NO_APP
.LBE7743:
.LBE7742:
.LBB7744:
.LBB7745:
	movb	21(%ebx), %al
#APP
# 82 "src/ioport.h" 1
	outb %al, $113
# 0 "" 2
#NO_APP
.LBE7745:
.LBE7744:
.LBE7741:
.LBB7746:
.LBB7747:
.LBB7748:
	movb	$-121, %al
#APP
# 82 "src/ioport.h" 1
	outb %al, $112
# 0 "" 2
#NO_APP
.LBE7748:
.LBE7747:
.LBB7749:
.LBB7750:
	movb	20(%ebx), %al
#APP
# 82 "src/ioport.h" 1
	outb %al, $113
# 0 "" 2
#NO_APP
.LBE7750:
.LBE7749:
.LBE7746:
.LBB7751:
.LBB7752:
.LBB7753:
	movb	$-78, %al
#APP
# 82 "src/ioport.h" 1
	outb %al, $112
# 0 "" 2
#NO_APP
.LBE7753:
.LBE7752:
.LBB7754:
.LBB7755:
	movb	25(%ebx), %al
#APP
# 82 "src/ioport.h" 1
	outb %al, $113
# 0 "" 2
#NO_APP
.LBE7755:
.LBE7754:
.LBE7751:
.LBB7756:
.LBB7757:
.LBB7758:
	movb	$-117, %cl
	movb	%cl, %al
#APP
# 82 "src/ioport.h" 1
	outb %al, $112
# 0 "" 2
#NO_APP
.LBE7758:
.LBE7757:
.LBB7759:
.LBB7760:
	.loc 2 92 0
#APP
# 92 "src/ioport.h" 1
	inb $113, %al
# 0 "" 2
#NO_APP
	movb	%al, %dl
.LVL477:
.LBE7760:
.LBE7759:
.LBE7756:
	.loc 7 348 0
	andl	$127, %edx
.LVL478:
.L277:
.LBB7761:
.LBB7762:
.LBB7763:
	.loc 2 82 0
	movb	%cl, %al
#APP
# 82 "src/ioport.h" 1
	outb %al, $112
# 0 "" 2
#NO_APP
.LBE7763:
.LBE7762:
.LBB7764:
.LBB7765:
	movb	%dl, %al
	jmp	.L275
.LVL479:
.L262:
.LBE7765:
.LBE7764:
.LBE7761:
.LBE7708:
.LBE7707:
.LBB7766:
.LBB7767:
.LBB7768:
.LBB7769:
.LBB7770:
	movb	$-117, %al
#APP
# 82 "src/ioport.h" 1
	outb %al, $112
# 0 "" 2
#NO_APP
.LBE7770:
.LBE7769:
.LBB7771:
.LBB7772:
	.loc 2 92 0
#APP
# 92 "src/ioport.h" 1
	inb $113, %al
# 0 "" 2
#NO_APP
	movl	%eax, %esi
.LVL480:
.LBE7772:
.LBE7771:
.LBE7768:
	.loc 7 370 0
	movw	$0, 28(%ebx)
	.loc 7 371 0
	testb	$32, %al
	jne	.L255
.LVL481:
	.loc 7 376 0
	call	rtc_updating.34605
.LVL482:
	testl	%eax, %eax
	je	.L272
.LBB7773:
.LBB7774:
.LBB7775:
.LBB7776:
.LBB7777:
	.loc 2 82 0
	movb	$-118, %al
#APP
# 82 "src/ioport.h" 1
	outb %al, $112
# 0 "" 2
#NO_APP
.LBE7777:
.LBE7776:
.LBB7778:
.LBB7779:
	movb	$38, %al
#APP
# 82 "src/ioport.h" 1
	outb %al, $113
# 0 "" 2
#NO_APP
.LBE7779:
.LBE7778:
.LBE7775:
.LBB7780:
.LBB7781:
.LBB7782:
	movb	$-117, %cl
	movb	%cl, %al
#APP
# 82 "src/ioport.h" 1
	outb %al, $112
# 0 "" 2
#NO_APP
.LBE7782:
.LBE7781:
.LBB7783:
.LBB7784:
	.loc 2 92 0
#APP
# 92 "src/ioport.h" 1
	inb $113, %al
# 0 "" 2
#NO_APP
	movb	%al, %dl
.LBE7784:
.LBE7783:
.LBE7780:
.LBB7785:
.LBB7786:
.LBB7787:
	.loc 2 82 0
	movb	%cl, %al
#APP
# 82 "src/ioport.h" 1
	outb %al, $112
# 0 "" 2
#NO_APP
.LBE7787:
.LBE7786:
.LBB7788:
.LBB7789:
	andl	$1, %edx
	orl	$2, %edx
	movb	%dl, %al
#APP
# 82 "src/ioport.h" 1
	outb %al, $113
# 0 "" 2
#NO_APP
.LBE7789:
.LBE7788:
.LBE7785:
.LBB7790:
.LBB7791:
.LBB7792:
	movb	$-116, %al
#APP
# 82 "src/ioport.h" 1
	outb %al, $112
# 0 "" 2
#NO_APP
.LBE7792:
.LBE7791:
.LBB7793:
.LBB7794:
	.loc 2 92 0
#APP
# 92 "src/ioport.h" 1
	inb $113, %al
# 0 "" 2
.LVL483:
#NO_APP
.LBE7794:
.LBE7793:
.LBE7790:
.LBB7795:
.LBB7796:
.LBB7797:
	.loc 2 82 0
	movb	$-115, %al
.LVL484:
#APP
# 82 "src/ioport.h" 1
	outb %al, $112
# 0 "" 2
#NO_APP
.LBE7797:
.LBE7796:
.LBB7798:
.LBB7799:
	.loc 2 92 0
#APP
# 92 "src/ioport.h" 1
	inb $113, %al
# 0 "" 2
.LVL485:
#NO_APP
.L272:
.LBE7799:
.LBE7798:
.LBE7795:
.LBE7774:
.LBE7773:
.LBB7800:
.LBB7801:
.LBB7802:
	.loc 2 82 0
	movb	$-127, %al
.LVL486:
#APP
# 82 "src/ioport.h" 1
	outb %al, $112
# 0 "" 2
#NO_APP
.LBE7802:
.LBE7801:
.LBB7803:
.LBB7804:
	movb	21(%ebx), %al
#APP
# 82 "src/ioport.h" 1
	outb %al, $113
# 0 "" 2
#NO_APP
.LBE7804:
.LBE7803:
.LBE7800:
.LBB7805:
.LBB7806:
.LBB7807:
	movb	$-125, %al
#APP
# 82 "src/ioport.h" 1
	outb %al, $112
# 0 "" 2
#NO_APP
.LBE7807:
.LBE7806:
.LBB7808:
.LBB7809:
	movb	24(%ebx), %al
#APP
# 82 "src/ioport.h" 1
	outb %al, $113
# 0 "" 2
#NO_APP
.LBE7809:
.LBE7808:
.LBE7805:
.LBB7810:
.LBB7811:
.LBB7812:
	movb	$-123, %al
#APP
# 82 "src/ioport.h" 1
	outb %al, $112
# 0 "" 2
#NO_APP
.LBE7812:
.LBE7811:
.LBB7813:
.LBB7814:
	movb	25(%ebx), %al
#APP
# 82 "src/ioport.h" 1
	outb %al, $113
# 0 "" 2
#NO_APP
.LBE7814:
.LBE7813:
.LBE7810:
.LBB7815:
.LBB7816:
.LBB7817:
	movb	$-117, %al
#APP
# 82 "src/ioport.h" 1
	outb %al, $112
# 0 "" 2
#NO_APP
.LBE7817:
.LBE7816:
.LBB7818:
.LBB7819:
	movl	%esi, %eax
	andl	$95, %eax
	orl	$32, %eax
#APP
# 82 "src/ioport.h" 1
	outb %al, $113
# 0 "" 2
#NO_APP
	jmp	.L274
.LVL487:
.L263:
.LBE7819:
.LBE7818:
.LBE7815:
.LBE7767:
.LBE7766:
.LBB7820:
.LBB7821:
.LBB7822:
.LBB7823:
.LBB7824:
	movb	$-117, %cl
	movb	%cl, %al
#APP
# 82 "src/ioport.h" 1
	outb %al, $112
# 0 "" 2
#NO_APP
.LBE7824:
.LBE7823:
.LBB7825:
.LBB7826:
	.loc 2 92 0
#APP
# 92 "src/ioport.h" 1
	inb $113, %al
# 0 "" 2
#NO_APP
	movb	%al, %dl
.LVL488:
.LBE7826:
.LBE7825:
.LBE7822:
.LBB7827:
.LBB7828:
.LBB7829:
	.loc 2 82 0
	movb	%cl, %al
#APP
# 82 "src/ioport.h" 1
	outb %al, $112
# 0 "" 2
#NO_APP
.LBE7829:
.LBE7828:
.LBB7830:
.LBB7831:
	movl	%edx, %eax
.LVL489:
	andl	$95, %eax
.LVL490:
.L275:
#APP
# 82 "src/ioport.h" 1
	outb %al, $113
# 0 "" 2
.LVL491:
#NO_APP
.L276:
.LBE7831:
.LBE7830:
.LBE7827:
	.loc 7 405 0
	movb	$0, 29(%ebx)
	.loc 7 406 0
	movb	%dl, 28(%ebx)
.LVL492:
.L274:
.LBB7832:
.LBB7833:
.LBB7834:
	.loc 14 62 0
	andw	$-2, 36(%ebx)
.LBE7834:
.LBE7833:
.LBE7832:
.LBE7821:
.LBE7820:
	.loc 7 430 0
	jmp	.L273
.LVL493:
.L281:
	.loc 7 431 0
	movl	%ebx, %eax
	.loc 7 434 0
	popl	%ebx
.LVL494:
	popl	%esi
	.loc 7 431 0
	jmp	handle_1ab1.1754
.LVL495:
.L255:
.LBB7835:
.LBB7836:
.LBB7837:
.LBB7838:
.LBB7839:
.LBB7840:
	.loc 14 60 0
	orw	$1, 36(%ebx)
.LVL496:
.L273:
.LBE7840:
.LBE7839:
.LBE7838:
.LBE7837:
.LBE7836:
.LBE7835:
	.loc 7 434 0
	popl	%ebx
.LVL497:
	popl	%esi
.LVL498:
	ret
	.cfi_endproc
.LFE1119:
	.size	handle_1a, .-handle_1a
	.section	.text.handle_hwpic1,"ax",@progbits
.globl handle_hwpic1
	.type	handle_hwpic1, @function
handle_hwpic1:
.LFB1189:
	.file 16 "src/pic.c"
	.loc 16 42 0
	.cfi_startproc
.LVL499:
.LBB7841:
.LBB7842:
.LBB7843:
	.loc 2 82 0
	movb	$32, %al
.LVL500:
#APP
# 82 "src/ioport.h" 1
	outb %al, $32
# 0 "" 2
#NO_APP
.LBE7843:
.LBE7842:
.LBE7841:
	.loc 16 45 0
	ret
	.cfi_endproc
.LFE1189:
	.size	handle_hwpic1, .-handle_hwpic1
	.section	.text.handle_hwpic2,"ax",@progbits
.globl handle_hwpic2
	.type	handle_hwpic2, @function
handle_hwpic2:
.LFB1190:
	.loc 16 49 0
	.cfi_startproc
.LVL501:
.LBB7844:
.LBB7845:
.LBB7846:
	.loc 2 82 0
	movb	$32, %al
.LVL502:
#APP
# 82 "src/ioport.h" 1
	outb %al, $160
# 0 "" 2
#NO_APP
.LBE7846:
.LBE7845:
.LBB7847:
.LBB7848:
.LBB7849:
#APP
# 82 "src/ioport.h" 1
	outb %al, $32
# 0 "" 2
#NO_APP
.LBE7849:
.LBE7848:
.LBE7847:
.LBE7844:
	.loc 16 52 0
	ret
	.cfi_endproc
.LFE1190:
	.size	handle_hwpic2, .-handle_hwpic2
	.section	.text.usb_init_hub_port.61715,"ax",@progbits
	.type	usb_init_hub_port.61715, @function
usb_init_hub_port.61715:
.LFB1976:
	.file 17 "src/usb.c"
	.loc 17 361 0
	.cfi_startproc
.LVL503:
	pushl	%ebx
	.cfi_def_cfa_offset 8
	movl	%eax, %ebx
	.cfi_offset 3, -8
	.loc 17 366 0
	movl	(%eax), %ecx
	movl	20(%eax), %edx
	call	*(%ecx)
.LVL504:
	.loc 17 367 0
	testl	%eax, %eax
.LVL505:
	jne	.L287
.LBB7850:
.LBB7851:
	.file 18 "src/stacks.c"
	.loc 18 257 0
	call	__force_link_error__only_in_32bit_flat
.LVL506:
.L287:
.LBE7851:
.LBE7850:
	.loc 17 393 0
	decl	24(%ebx)
	.loc 17 399 0
	popl	%ebx
.LVL507:
	ret
	.cfi_endproc
.LFE1976:
	.size	usb_init_hub_port.61715, .-usb_init_hub_port.61715
	.section	.text.usb_poll_intr.60867,"ax",@progbits
	.type	usb_poll_intr.60867, @function
usb_poll_intr.60867:
.LFB1968:
	.loc 17 142 0
	.cfi_startproc
.LVL508:
	pushl	%ebp
	.cfi_def_cfa_offset 8
	pushl	%edi
	.cfi_def_cfa_offset 12
	pushl	%esi
	.cfi_def_cfa_offset 16
	pushl	%ebx
	.cfi_def_cfa_offset 20
	subl	$28, %esp
	.cfi_def_cfa_offset 48
	movl	%eax, %ecx
	movl	%edx, 20(%esp)
.LBB7926:
	.loc 17 143 0
	leal	4(%eax), %eax
.LVL509:
	movl	%eax, %edx
.LVL510:
	shrl	$4, %edx
#APP
# 143 "src/usb.c" 1
	movw %dx, %ES
# 0 "" 2
#NO_APP
.LBB7927:
	andl	$15, %eax
#APP
# 143 "src/usb.c" 1
	movb %ES:(%eax), %al
# 0 "" 2
.LVL511:
#NO_APP
.LBE7927:
.LBE7926:
	cmpb	$2, %al
	je	.L291
	.cfi_offset 3, -20
	.cfi_offset 6, -16
	.cfi_offset 7, -12
	.cfi_offset 5, -8
	cmpb	$3, %al
	je	.L292
.LBB7928:
.LBB7929:
.LBB7930:
	.file 19 "src/usb-uhci.c"
	.loc 19 581 0
	subl	$4, %ecx
.LVL512:
	movl	%ecx, %eax
.LVL513:
	shrl	$4, %eax
	movl	%eax, 4(%esp)
#APP
# 581 "src/usb-uhci.c" 1
	movw %ax, %ES
# 0 "" 2
#NO_APP
.LBB7931:
	andl	$15, %ecx
	movl	%ecx, 24(%esp)
#APP
# 581 "src/usb-uhci.c" 1
	movl %ES:(%ecx), %edx
# 0 "" 2
.LVL514:
#NO_APP
.LBE7931:
.LBE7930:
.LBB7932:
	.loc 19 582 0
	leal	4(%edx), %ebp
	movl	%ebp, %ecx
	shrl	$4, %ecx
	movl	%ecx, 8(%esp)
#APP
# 582 "src/usb-uhci.c" 1
	movw %cx, %ES
# 0 "" 2
#NO_APP
.LBB7933:
	andl	$15, %ebp
#APP
# 582 "src/usb-uhci.c" 1
	movl %ES:(%ebp), %ebx
# 0 "" 2
#NO_APP
	movl	%ebx, 12(%esp)
.LBE7933:
.LBE7932:
.LBB7934:
	.loc 19 583 0
	leal	8(%edx), %eax
	movl	%eax, %ecx
	shrl	$4, %ecx
#APP
# 583 "src/usb-uhci.c" 1
	movw %cx, %ES
# 0 "" 2
#NO_APP
.LBB7935:
	andl	$15, %eax
#APP
# 583 "src/usb-uhci.c" 1
	movl %ES:(%eax), %ecx
# 0 "" 2
.LVL515:
#NO_APP
.LBE7935:
.LBE7934:
	.loc 19 584 0
	andl	$8388608, %ebx
	jne	.L293
.LBB7936:
	.loc 19 590 0
	leal	12(%edx), %eax
	movl	%eax, %esi
	shrl	$4, %esi
#APP
# 590 "src/usb-uhci.c" 1
	movw %si, %ES
# 0 "" 2
#NO_APP
.LBB7937:
	andl	$15, %eax
#APP
# 590 "src/usb-uhci.c" 1
	movl %ES:(%eax), %esi
# 0 "" 2
.LVL516:
#NO_APP
.LBE7937:
.LBE7936:
.LBB7938:
	.loc 19 591 0
#APP
# 591 "src/usb-uhci.c" 1
	movw %SS, %ax
# 0 "" 2
.LVL517:
#NO_APP
.LBE7938:
.LBB7939:
.LBB7940:
	.loc 6 185 0
#APP
# 185 "src/util.c" 1
	movw %ax, %ES
# 0 "" 2
	.loc 6 187 0
#NO_APP
	movl	%esi, %eax
.LVL518:
	shrl	$4, %eax
	movl	%eax, 16(%esp)
	shrl	$21, %ecx
.LVL519:
	incl	%ecx
	andl	$2047, %ecx
	andl	$15, %esi
.LVL520:
	movl	20(%esp), %edi
.LVL521:
#APP
# 187 "src/util.c" 1
	movw %ds, %bx
movw %ax, %ds
rep movsb (%si),%es:(%di)
movw %bx, %ds
# 0 "" 2
.LVL522:
#NO_APP
.LBE7940:
.LBE7939:
.LBB7941:
	.loc 19 596 0
	movl	%edx, %eax
	shrl	$4, %eax
#APP
# 596 "src/usb-uhci.c" 1
	movw %ax, %ES
# 0 "" 2
#NO_APP
.LBB7942:
	andl	$15, %edx
.LVL523:
#APP
# 596 "src/usb-uhci.c" 1
	movl %ES:(%edx), %eax
# 0 "" 2
#NO_APP
.LBE7942:
.LBE7941:
.LBB7943:
.LBB7944:
	.loc 19 597 0
#APP
# 597 "src/usb-uhci.c" 1
	movw 4(%esp), %ES
# 0 "" 2
#NO_APP
	andl	$-16, %eax
	movl	24(%esp), %edx
#APP
# 597 "src/usb-uhci.c" 1
	movl %eax, %ES:(%edx)
# 0 "" 2
#NO_APP
.LBE7944:
.LBE7943:
	.loc 19 598 0
.LBB7945:
.LBB7946:
	.loc 19 599 0
#APP
# 599 "src/usb-uhci.c" 1
	movw 8(%esp), %ES
# 0 "" 2
#NO_APP
	movl	12(%esp), %eax
	andl	$67108864, %eax
	orl	$8388608, %eax
#APP
# 599 "src/usb-uhci.c" 1
	movl %eax, %ES:(%ebp)
# 0 "" 2
#NO_APP
	jmp	.L297
.LVL524:
.L291:
.LBE7946:
.LBE7945:
.LBE7929:
.LBE7928:
.LBB7947:
.LBB7948:
.LBB7949:
	.file 20 "src/usb-ohci.c"
	.loc 20 487 0
	leal	20(%ecx), %eax
.LVL525:
	movl	%eax, %edx
	shrl	$4, %edx
#APP
# 487 "src/usb-ohci.c" 1
	movw %dx, %ES
# 0 "" 2
#NO_APP
.LBB7950:
	andl	$15, %eax
#APP
# 487 "src/usb-ohci.c" 1
	movl %ES:(%eax), %edi
# 0 "" 2
.LVL526:
#NO_APP
.LBE7950:
.LBE7949:
.LBB7951:
	.loc 20 488 0
	leal	-8(%ecx), %eax
	movl	%eax, %edx
	shrl	$4, %edx
#APP
# 488 "src/usb-ohci.c" 1
	movw %dx, %ES
# 0 "" 2
#NO_APP
.LBB7952:
	andl	$15, %eax
#APP
# 488 "src/usb-ohci.c" 1
	movl %ES:(%eax), %esi
# 0 "" 2
.LVL527:
#NO_APP
.LBE7952:
.LBE7951:
.LBB7953:
	.loc 20 489 0
	leal	-12(%ecx), %eax
	movl	%eax, %ebx
	shrl	$4, %ebx
	movl	%ebx, 12(%esp)
#APP
# 489 "src/usb-ohci.c" 1
	movw %bx, %ES
# 0 "" 2
#NO_APP
.LBB7954:
	andl	$15, %eax
	movl	%eax, 16(%esp)
#APP
# 489 "src/usb-ohci.c" 1
	movl %ES:(%eax), %ebx
# 0 "" 2
.LVL528:
#NO_APP
.LBE7954:
.LBE7953:
.LBB7955:
	.loc 20 490 0
	leal	16(%ecx), %eax
	movl	%eax, %edx
	shrl	$4, %edx
#APP
# 490 "src/usb-ohci.c" 1
	movw %dx, %ES
# 0 "" 2
#NO_APP
.LBB7956:
	andl	$15, %eax
#APP
# 490 "src/usb-ohci.c" 1
	movl %ES:(%eax), %edx
# 0 "" 2
.LVL529:
#NO_APP
.LBE7956:
.LBE7955:
	.loc 20 491 0
	movl	%ebx, %ebp
	subl	%edi, %ebp
	sarl	$4, %ebp
	movl	%ebp, 4(%esp)
	movl	%ebp, %eax
	incl	%eax
	movl	%edx, %ebp
	cltd
.LVL530:
	idivl	%ebp
	.loc 20 492 0
	movl	%edx, %eax
	sall	$4, %eax
	leal	(%edi,%eax), %eax
	movl	%eax, 8(%esp)
	.loc 20 493 0
	orl	$-1, %eax
	cmpl	%esi, 8(%esp)
	je	.L294
.LBB7957:
	.loc 20 499 0
	leal	8(%ecx), %eax
	movl	%eax, %esi
.LVL531:
	shrl	$4, %esi
#APP
# 499 "src/usb-ohci.c" 1
	movw %si, %ES
# 0 "" 2
#NO_APP
.LBB7958:
	andl	$15, %eax
#APP
# 499 "src/usb-ohci.c" 1
	movw %ES:(%eax), %bp
# 0 "" 2
.LVL532:
#NO_APP
.LBE7958:
.LBE7957:
	movzwl	%bp, %ebp
.LVL533:
.LBB7959:
	.loc 20 500 0
	addl	$12, %ecx
.LVL534:
	movl	%ecx, %eax
	shrl	$4, %eax
#APP
# 500 "src/usb-ohci.c" 1
	movw %ax, %ES
# 0 "" 2
#NO_APP
.LBB7960:
	andl	$15, %ecx
#APP
# 500 "src/usb-ohci.c" 1
	movl %ES:(%ecx), %eax
# 0 "" 2
#NO_APP
	movl	%eax, 24(%esp)
.LBE7960:
.LBE7959:
	.loc 20 503 0
	movl	%ebp, %esi
	imull	%edx, %esi
	addl	%eax, %esi
.LBB7961:
	.loc 20 502 0
#APP
# 502 "src/usb-ohci.c" 1
	movw %SS, %ax
# 0 "" 2
.LVL535:
#NO_APP
.LBE7961:
.LBB7962:
.LBB7963:
	.loc 6 185 0
#APP
# 185 "src/util.c" 1
	movw %ax, %ES
# 0 "" 2
	.loc 6 187 0
#NO_APP
	movl	%esi, %eax
.LVL536:
	shrl	$4, %eax
	andl	$15, %esi
	movl	%ebp, %ecx
.LVL537:
	movl	20(%esp), %edi
.LVL538:
#APP
# 187 "src/util.c" 1
	movw %ds, %dx
movw %ax, %ds
rep movsb (%si),%es:(%di)
movw %dx, %ds
# 0 "" 2
.LVL539:
#NO_APP
.LBE7963:
.LBE7962:
.LBB7964:
.LBB7965:
	.loc 20 507 0
	movl	%ebx, %eax
	shrl	$4, %eax
#APP
# 507 "src/usb-ohci.c" 1
	movw %ax, %ES
# 0 "" 2
#NO_APP
	movl	%ebx, %eax
	andl	$15, %eax
	movl	$-267386880, %edx
#APP
# 507 "src/usb-ohci.c" 1
	movl %edx, %ES:(%eax)
# 0 "" 2
#NO_APP
.LBE7965:
.LBE7964:
.LBB7966:
.LBB7967:
	.loc 20 509 0
	movl	4(%esp), %eax
	imull	%ebp, %eax
	addl	24(%esp), %eax
.LVL540:
	leal	4(%ebx), %edx
	movl	%edx, %ecx
.LVL541:
	shrl	$4, %ecx
#APP
# 509 "src/usb-ohci.c" 1
	movw %cx, %ES
# 0 "" 2
#NO_APP
	andl	$15, %edx
#APP
# 509 "src/usb-ohci.c" 1
	movl %eax, %ES:(%edx)
# 0 "" 2
#NO_APP
.LBE7967:
.LBE7966:
.LBB7968:
.LBB7969:
	.loc 20 510 0
	leal	8(%ebx), %edx
	movl	%edx, %ecx
	shrl	$4, %ecx
#APP
# 510 "src/usb-ohci.c" 1
	movw %cx, %ES
# 0 "" 2
#NO_APP
	andl	$15, %edx
	movl	8(%esp), %ecx
#APP
# 510 "src/usb-ohci.c" 1
	movl %ecx, %ES:(%edx)
# 0 "" 2
#NO_APP
.LBE7969:
.LBE7968:
.LBB7970:
.LBB7971:
	.loc 20 511 0
	addl	$12, %ebx
.LVL542:
	movl	%ebx, %edx
	shrl	$4, %edx
#APP
# 511 "src/usb-ohci.c" 1
	movw %dx, %ES
# 0 "" 2
#NO_APP
	andl	$15, %ebx
	leal	-1(%ebp,%eax), %eax
.LVL543:
#APP
# 511 "src/usb-ohci.c" 1
	movl %eax, %ES:(%ebx)
# 0 "" 2
#NO_APP
.LBE7971:
.LBE7970:
	.loc 20 512 0
.LBB7972:
.LBB7973:
	.loc 20 513 0
#APP
# 513 "src/usb-ohci.c" 1
	movw 12(%esp), %ES
# 0 "" 2
#NO_APP
	movl	16(%esp), %ebx
#APP
# 513 "src/usb-ohci.c" 1
	movl %ecx, %ES:(%ebx)
# 0 "" 2
.LVL544:
#NO_APP
.L297:
	xorl	%eax, %eax
	jmp	.L294
.LVL545:
.L292:
.LBE7973:
.LBE7972:
.LBE7948:
.LBE7947:
.LBB7974:
.LBB7975:
.LBB7976:
	.file 21 "src/usb-ehci.c"
	.loc 21 735 0
	leal	-12(%ecx), %ebp
	movl	%ebp, %eax
.LVL546:
	shrl	$4, %eax
	movl	%eax, 8(%esp)
#APP
# 735 "src/usb-ehci.c" 1
	movw %ax, %ES
# 0 "" 2
#NO_APP
.LBB7977:
	andl	$15, %ebp
	movl	%ebp, (%esp)
#APP
# 735 "src/usb-ehci.c" 1
	movl %ES:(%ebp), %edx
# 0 "" 2
.LVL547:
#NO_APP
.LBE7977:
.LBE7976:
.LBB7978:
	.loc 21 736 0
	leal	8(%edx), %eax
	movl	%eax, %ebx
	shrl	$4, %ebx
	movl	%ebx, 12(%esp)
#APP
# 736 "src/usb-ehci.c" 1
	movw %bx, %ES
# 0 "" 2
#NO_APP
.LBB7979:
	andl	$15, %eax
	movl	%eax, 16(%esp)
#APP
# 736 "src/usb-ehci.c" 1
	movl %ES:(%eax), %eax
# 0 "" 2
.LVL548:
#NO_APP
.LBE7979:
.LBE7978:
	.loc 21 737 0
	testb	%al, %al
	js	.L293
.LBB7980:
	.loc 21 743 0
	leal	8(%ecx), %eax
.LVL549:
	movl	%eax, %ebx
	shrl	$4, %ebx
#APP
# 743 "src/usb-ehci.c" 1
	movw %bx, %ES
# 0 "" 2
#NO_APP
.LBB7981:
	andl	$15, %eax
#APP
# 743 "src/usb-ehci.c" 1
	movw %ES:(%eax), %ax
# 0 "" 2
.LVL550:
#NO_APP
.LBE7981:
.LBE7980:
	movzwl	%ax, %eax
.LVL551:
	movl	%eax, 4(%esp)
.LBB7982:
	.loc 21 744 0
	leal	-8(%ecx), %eax
	movl	%eax, %ebx
	shrl	$4, %ebx
#APP
# 744 "src/usb-ehci.c" 1
	movw %bx, %ES
# 0 "" 2
#NO_APP
.LBB7983:
	andl	$15, %eax
#APP
# 744 "src/usb-ehci.c" 1
	movl %ES:(%eax), %eax
# 0 "" 2
.LVL552:
#NO_APP
.LBE7983:
.LBE7982:
.LBB7984:
	.loc 21 745 0
	subl	$4, %ecx
.LVL553:
	movl	%ecx, %ebx
	shrl	$4, %ebx
#APP
# 745 "src/usb-ehci.c" 1
	movw %bx, %ES
# 0 "" 2
#NO_APP
.LBB7985:
	andl	$15, %ecx
#APP
# 745 "src/usb-ehci.c" 1
	movl %ES:(%ecx), %ecx
# 0 "" 2
.LVL554:
#NO_APP
.LBE7985:
.LBE7984:
	.loc 21 747 0
	movl	%edx, %ebx
	subl	%eax, %ebx
	sarl	$5, %ebx
	imull	4(%esp), %ebx
	leal	(%ecx,%ebx), %ebx
.LBB7986:
	.loc 21 746 0
#APP
# 746 "src/usb-ehci.c" 1
	movw %SS, %ax
# 0 "" 2
.LVL555:
#NO_APP
.LBE7986:
.LBB7987:
.LBB7988:
	.loc 6 185 0
#APP
# 185 "src/util.c" 1
	movw %ax, %ES
# 0 "" 2
	.loc 6 187 0
#NO_APP
	movl	%ebx, %ebp
	shrl	$4, %ebp
	movl	%ebp, 24(%esp)
	movl	%ebx, %esi
	andl	$15, %esi
	movl	4(%esp), %ecx
.LVL556:
	movl	20(%esp), %edi
.LVL557:
#APP
# 187 "src/util.c" 1
	movw %ds, %ax
movw %bp, %ds
rep movsb (%si),%es:(%di)
movw %ax, %ds
# 0 "" 2
.LVL558:
#NO_APP
.LBE7988:
.LBE7987:
.LBB7989:
	.loc 21 751 0
	movl	%edx, %eax
	shrl	$4, %eax
#APP
# 751 "src/usb-ehci.c" 1
	movw %ax, %ES
# 0 "" 2
#NO_APP
.LBB7990:
	movl	%edx, %eax
	andl	$15, %eax
#APP
# 751 "src/usb-ehci.c" 1
	movl %ES:(%eax), %eax
# 0 "" 2
#NO_APP
.LBE7990:
.LBE7989:
.LBB7991:
.LBB7992:
	.loc 21 752 0
#APP
# 752 "src/usb-ehci.c" 1
	movw 8(%esp), %ES
# 0 "" 2
#NO_APP
	andl	$-32, %eax
	movl	(%esp), %ecx
.LVL559:
#APP
# 752 "src/usb-ehci.c" 1
	movl %eax, %ES:(%ecx)
# 0 "" 2
#NO_APP
.LBE7992:
.LBE7991:
.LBB7993:
.LBB7994:
	.loc 21 753 0
	addl	$12, %edx
.LVL560:
	movl	%edx, %eax
	shrl	$4, %eax
#APP
# 753 "src/usb-ehci.c" 1
	movw %ax, %ES
# 0 "" 2
#NO_APP
	andl	$15, %edx
#APP
# 753 "src/usb-ehci.c" 1
	movl %ebx, %ES:(%edx)
# 0 "" 2
#NO_APP
.LBE7994:
.LBE7993:
	.loc 21 754 0
.LBB7995:
.LBB7996:
	.loc 21 755 0
#APP
# 755 "src/usb-ehci.c" 1
	movw 12(%esp), %ES
# 0 "" 2
#NO_APP
	movl	4(%esp), %eax
	sall	$16, %eax
	andl	$2147418112, %eax
	orl	$3456, %eax
	movl	16(%esp), %ebx
#APP
# 755 "src/usb-ehci.c" 1
	movl %eax, %ES:(%ebx)
# 0 "" 2
#NO_APP
	jmp	.L297
.LVL561:
.L293:
	orl	$-1, %eax
.LVL562:
.L294:
.LBE7996:
.LBE7995:
.LBE7975:
.LBE7974:
	.loc 17 152 0
	addl	$28, %esp
	popl	%ebx
.LVL563:
	popl	%esi
.LVL564:
	popl	%edi
.LVL565:
	popl	%ebp
.LVL566:
	ret
	.cfi_endproc
.LFE1968:
	.size	usb_poll_intr.60867, .-usb_poll_intr.60867
	.section	.rodata.str1.1,"aMS",@progbits,1
.LC0:
	.string	"Standby"
.LC1:
	.string	"Suspend"
.LC2:
	.string	"Shutdown"
	.section	.text.handle_1553.1752,"ax",@progbits
	.type	handle_1553.1752, @function
handle_1553.1752:
.LFB2646:
	.file 22 "src/apm.c"
	.loc 22 194 0
	.cfi_startproc
.LVL567:
	pushl	%ebx
	.cfi_def_cfa_offset 8
	movl	%eax, %ecx
	.loc 22 201 0
	movb	28(%eax), %al
.LVL568:
	cmpb	$6, %al
	je	.L330
	.cfi_offset 3, -8
	ja	.L314
	cmpb	$2, %al
	je	.L302
	ja	.L315
	testb	%al, %al
	je	.L300
	decb	%al
	jne	.L299
	jmp	.L330
.L315:
	cmpb	$4, %al
	je	.L330
	ja	.L305
	jmp	.L335
.L314:
	cmpb	$11, %al
	je	.L310
	ja	.L316
	cmpb	$8, %al
	je	.L330
	jb	.L307
	cmpb	$10, %al
	jne	.L299
	jmp	.L336
.L316:
	cmpb	$15, %al
	je	.L330
	cmpb	$16, %al
	je	.L313
	cmpb	$14, %al
	jne	.L299
	jmp	.L337
.L300:
.LBB7997:
.LBB7998:
	.loc 22 38 0
	movb	$1, 29(%ecx)
	.loc 22 39 0
	movb	$2, 28(%ecx)
	.loc 22 40 0
	movb	$80, 17(%ecx)
	.loc 22 41 0
	movb	$77, 16(%ecx)
	.loc 22 44 0
	movw	$3, 24(%ecx)
	jmp	.L330
.L302:
.LBE7998:
.LBE7997:
.LBB7999:
.LBB8000:
	.loc 22 63 0
	movl	$apm16protected_entry, %eax
	movw	%ax, 16(%ecx)
	.loc 22 64 0
	movw	$-4096, 28(%ecx)
	.loc 22 65 0
	movw	$-16, 8(%ecx)
	.loc 22 66 0
	movw	$-4096, 24(%ecx)
	jmp	.L331
.L335:
.LBE8000:
.LBE7999:
.LBB8001:
.LBB8002:
	.loc 22 75 0
	movw	$-4096, 28(%ecx)
	.loc 22 76 0
	movl	$apm32protected_entry, 16(%ecx)
	.loc 22 77 0
	movw	$-4096, 24(%ecx)
	.loc 22 80 0
	movl	$-983056, 8(%ecx)
	.loc 22 81 0
	movw	$-4096, 20(%ecx)
.L331:
	.loc 22 82 0
	movw	$-16, 4(%ecx)
	jmp	.L330
.L305:
.LBE8002:
.LBE8001:
.LBB8003:
.LBB8004:
.LBB8005:
	.loc 8 42 0
#APP
# 42 "src/util.h" 1
	sti ; hlt ; cli ; cld
# 0 "" 2
#NO_APP
	jmp	.L330
.L307:
.LBE8005:
.LBE8004:
.LBE8003:
.LBB8006:
.LBB8007:
	.loc 22 112 0
	cmpw	$1, 16(%ecx)
	jne	.L330
	.loc 22 116 0
	movw	24(%ecx), %ax
	cmpw	$2, %ax
	je	.L321
	cmpw	$3, %ax
	je	.L322
	decw	%ax
	jne	.L330
.LBB8008:
.LBB8009:
	.loc 22 24 0
	movl	$.LC0, %ebx
.LVL569:
.LBB8010:
.LBB8011:
.LBB8012:
	.loc 2 82 0
	movl	$-30464, %edx
.LVL570:
.L323:
.LBE8012:
.LBE8011:
.LBB8014:
	.loc 22 26 0
#APP
# 26 "src/apm.c" 1
	movb %CS:(%ebx), %al
# 0 "" 2
#NO_APP
.LBE8014:
	.loc 22 27 0
	testb	%al, %al
	je	.L330
.LBB8015:
.LBB8013:
	.loc 2 82 0
#APP
# 82 "src/ioport.h" 1
	outb %al, %dx
# 0 "" 2
#NO_APP
.LBE8013:
.LBE8015:
	.loc 22 30 0
	incl	%ebx
	jmp	.L323
.LVL571:
.L321:
.LBE8010:
.LBE8009:
.LBE8008:
.LBB8016:
.LBB8017:
	.loc 22 24 0
	movl	$.LC1, %ebx
.LVL572:
.LBB8018:
.LBB8019:
.LBB8020:
	.loc 2 82 0
	movl	$-30464, %edx
.LVL573:
.L324:
.LBE8020:
.LBE8019:
.LBB8022:
	.loc 22 26 0
#APP
# 26 "src/apm.c" 1
	movb %CS:(%ebx), %al
# 0 "" 2
#NO_APP
.LBE8022:
	.loc 22 27 0
	testb	%al, %al
	je	.L330
.LBB8023:
.LBB8021:
	.loc 2 82 0
#APP
# 82 "src/ioport.h" 1
	outb %al, %dx
# 0 "" 2
#NO_APP
.LBE8021:
.LBE8023:
	.loc 22 30 0
	incl	%ebx
	jmp	.L324
.LVL574:
.L322:
.LBE8018:
.LBE8017:
.LBE8016:
.LBB8024:
.LBB8025:
	.loc 8 13 0
#APP
# 13 "src/util.h" 1
	cli
# 0 "" 2
#NO_APP
.LBE8025:
.LBE8024:
.LBB8026:
.LBB8027:
	.loc 22 24 0
	movl	$.LC2, %ecx
.LVL575:
.LBB8028:
.LBB8029:
.LBB8030:
	.loc 2 82 0
	movl	$-30464, %edx
.LVL576:
.L326:
.LBE8030:
.LBE8029:
.LBB8032:
	.loc 22 26 0
#APP
# 26 "src/apm.c" 1
	movb %CS:(%ecx), %al
# 0 "" 2
#NO_APP
.LBE8032:
	.loc 22 27 0
	testb	%al, %al
	je	.L328
.LBB8033:
.LBB8031:
	.loc 2 82 0
#APP
# 82 "src/ioport.h" 1
	outb %al, %dx
# 0 "" 2
#NO_APP
.LBE8031:
.LBE8033:
	.loc 22 30 0
	incl	%ecx
	jmp	.L326
.L328:
.LBE8028:
.LBE8027:
.LBE8026:
.LBB8034:
.LBB8035:
	.loc 8 52 0
#APP
# 52 "src/util.h" 1
	hlt
# 0 "" 2
#NO_APP
	jmp	.L328
.LVL577:
.L336:
.LBE8035:
.LBE8034:
.LBE8007:
.LBE8006:
.LBB8036:
.LBB8037:
	.loc 22 143 0
	movb	$1, 17(%ecx)
	.loc 22 144 0
	movb	$-1, 16(%ecx)
	.loc 22 145 0
	movb	$-128, 25(%ecx)
	.loc 22 146 0
	movb	$-1, 24(%ecx)
	.loc 22 147 0
	movw	$-1, 20(%ecx)
	.loc 22 148 0
	movw	$0, 8(%ecx)
	jmp	.L330
.L310:
.LBE8037:
.LBE8036:
.LBB8038:
.LBB8039:
.LBB8040:
	.loc 14 90 0
	movb	$-128, 29(%ecx)
	jmp	.L299
.L337:
.LBE8040:
.LBE8039:
.LBE8038:
.LBB8041:
.LBB8042:
	.loc 22 165 0
	movb	$1, 29(%ecx)
	.loc 22 166 0
	movb	$2, 28(%ecx)
	jmp	.L330
.L313:
.LBE8042:
.LBE8041:
.LBB8043:
.LBB8044:
	.loc 22 181 0
	movb	$0, 16(%ecx)
	.loc 22 182 0
	movw	$0, 24(%ecx)
.LVL578:
.L330:
.LBB8045:
.LBB8046:
.LBB8047:
	.loc 14 62 0
	andw	$-2, 36(%ecx)
.LBE8047:
.LBE8046:
.LBE8045:
.LBE8044:
.LBE8043:
	.loc 22 215 0
	jmp	.L327
.LVL579:
.L299:
.LBB8048:
.LBB8049:
.LBB8050:
.LBB8051:
.LBB8052:
.LBB8053:
	.loc 14 60 0
	orw	$1, 36(%ecx)
.LVL580:
.L327:
.LBE8053:
.LBE8052:
.LBE8051:
.LBE8050:
.LBE8049:
.LBE8048:
	.loc 22 218 0
	popl	%ebx
.LVL581:
	ret
	.cfi_endproc
.LFE2646:
	.size	handle_1553.1752, .-handle_1553.1752
	.section	.text.basic_access.80083,"ax",@progbits
	.type	basic_access.80083, @function
basic_access.80083:
.LFB2523:
	.file 23 "src/disk.c"
	.loc 23 81 0
	.cfi_startproc
.LVL582:
	pushl	%ebp
	.cfi_def_cfa_offset 8
	movl	%esp, %ebp
	.cfi_offset 5, -8
	.cfi_def_cfa_register 5
	pushl	%edi
	pushl	%esi
	pushl	%ebx
	subl	$44, %esp
	movl	%eax, -56(%ebp)
	.loc 23 86 0
	movl	%eax, %ebx
	.cfi_offset 3, -20
	.cfi_offset 6, -16
	.cfi_offset 7, -12
	movb	28(%eax), %al
.LVL583:
	.loc 23 87 0
	movzbl	25(%ebx), %esi
	movzbl	24(%ebx), %edi
	.loc 23 89 0
	movb	21(%ebx), %bl
	movb	%bl, -35(%ebp)
	.loc 23 91 0
	movl	%edi, %ebx
	andw	$63, %bx
	movw	%bx, -34(%ebp)
	je	.L354
	movb	%al, %bl
	decb	%bl
	jns	.L339
.L354:
.LBB8054:
.LBB8055:
	.loc 23 26 0
	movl	-56(%ebp), %esi
	cmpb	$0, 20(%esi)
	js	.L341
.LBB8056:
	.loc 23 27 0
	movl	$64, %eax
.LVL584:
#APP
# 27 "src/disk.c" 1
	movw %ax, %ES
# 0 "" 2
#NO_APP
	movb	$1, %al
#APP
# 27 "src/disk.c" 1
	movb %al, %ES:65
# 0 "" 2
#NO_APP
	jmp	.L342
.LVL585:
.L341:
.LBE8056:
.LBB8057:
	.loc 23 29 0
	movl	$64, %eax
.LVL586:
#APP
# 29 "src/disk.c" 1
	movw %ax, %ES
# 0 "" 2
#NO_APP
	movb	$1, %al
#APP
# 29 "src/disk.c" 1
	movb %al, %ES:116
# 0 "" 2
#NO_APP
.L342:
.LBE8057:
.LBB8058:
.LBB8059:
.LBB8060:
.LBB8061:
	.loc 14 90 0
	movl	-56(%ebp), %edi
	movb	$1, 29(%edi)
.LBB8062:
.LBB8063:
	.loc 14 60 0
	orw	$1, 36(%edi)
	jmp	.L353
.LVL587:
.L339:
.LBE8063:
.LBE8062:
.LBE8061:
.LBE8060:
.LBE8059:
.LBE8058:
.LBE8055:
.LBE8054:
	.loc 23 83 0
	movl	%edx, -20(%ebp)
	.loc 23 84 0
	movb	%cl, -14(%ebp)
	.loc 23 96 0
	movzbl	%al, %eax
.LVL588:
	movw	%ax, -16(%ebp)
.LBB8064:
.LBB8065:
.LBB8066:
	.loc 23 62 0
#APP
# 62 "src/disk.c" 1
	movl %CS:cdemu_drive_gf, %eax
# 0 "" 2
.LVL589:
#NO_APP
.LBE8066:
	.loc 23 61 0
	subl	$983040, %eax
.LVL590:
	cmpl	%eax, %edx
	jne	.L344
.LBB8067:
.LBB8068:
.LBB8069:
	.loc 10 249 0
	movl	$64, %eax
#APP
# 249 "src/biosvar.h" 1
	movw %ax, %ES
# 0 "" 2
#NO_APP
.LBB8070:
#APP
# 249 "src/biosvar.h" 1
	movw %ES:14, %dx
# 0 "" 2
.LVL591:
#NO_APP
.LBE8070:
.LBE8069:
.LBE8068:
	.loc 23 68 0
#APP
# 68 "src/disk.c" 1
	movw %dx, %ES
# 0 "" 2
#NO_APP
.LBB8071:
#APP
# 68 "src/disk.c" 1
	movw %ES:322, %cx
# 0 "" 2
.LVL592:
#NO_APP
.LBE8071:
	.loc 23 69 0
#APP
# 69 "src/disk.c" 1
	movw %dx, %ES
# 0 "" 2
#NO_APP
.LBB8072:
#APP
# 69 "src/disk.c" 1
	movw %ES:320, %ax
# 0 "" 2
.LVL593:
#NO_APP
.LBE8072:
	.loc 23 70 0
#APP
# 70 "src/disk.c" 1
	movw %dx, %ES
# 0 "" 2
#NO_APP
.LBB8073:
#APP
# 70 "src/disk.c" 1
	movw %ES:324, %dx
# 0 "" 2
.LVL594:
#NO_APP
	jmp	.L345
.LVL595:
.L344:
.LBE8073:
.LBE8067:
.LBB8074:
	.loc 23 73 0
#APP
# 73 "src/disk.c" 1
	movw %CS:4(%edx), %cx
# 0 "" 2
.LVL596:
#NO_APP
.LBE8074:
.LBB8075:
	.loc 23 74 0
#APP
# 74 "src/disk.c" 1
	movw %CS:2(%edx), %ax
# 0 "" 2
.LVL597:
#NO_APP
.LBE8075:
.LBB8076:
	.loc 23 75 0
#APP
# 75 "src/disk.c" 1
	movw %CS:6(%edx), %dx
# 0 "" 2
.LVL598:
#NO_APP
.L345:
.LBE8076:
.LBE8065:
.LBE8064:
	.loc 23 87 0
	leal	0(,%edi,4), %ebx
.LVL599:
	andw	$768, %bx
.LVL600:
	andw	$255, %si
	orl	%esi, %ebx
.LVL601:
	.loc 23 102 0
	cmpw	%cx, %bx
	jae	.L346
	.loc 23 89 0
	movzbl	-35(%ebp), %ecx
.LVL602:
	.loc 23 102 0
	cmpw	%ax, %cx
	jae	.L346
	cmpw	%dx, -34(%ebp)
	jbe	.L347
.LVL603:
.L346:
.LBB8077:
.LBB8078:
	.loc 23 26 0
	movl	-56(%ebp), %eax
.LVL604:
	cmpb	$0, 20(%eax)
	js	.L348
.LBB8079:
	.loc 23 27 0
	movl	$64, %eax
#APP
# 27 "src/disk.c" 1
	movw %ax, %ES
# 0 "" 2
#NO_APP
	movb	$1, %al
#APP
# 27 "src/disk.c" 1
	movb %al, %ES:65
# 0 "" 2
#NO_APP
	jmp	.L349
.L348:
.LBE8079:
.LBB8080:
	.loc 23 29 0
	movl	$64, %eax
#APP
# 29 "src/disk.c" 1
	movw %ax, %ES
# 0 "" 2
#NO_APP
	movb	$1, %al
#APP
# 29 "src/disk.c" 1
	movb %al, %ES:116
# 0 "" 2
#NO_APP
.L349:
.LBE8080:
.LBB8081:
.LBB8082:
.LBB8083:
.LBB8084:
	.loc 14 90 0
	movl	-56(%ebp), %edx
.LVL605:
	movb	$1, 29(%edx)
.LBB8085:
.LBB8086:
	.loc 14 60 0
	orw	$1, 36(%edx)
	jmp	.L353
.LVL606:
.L347:
.LBE8086:
.LBE8085:
.LBE8084:
.LBE8083:
.LBE8082:
.LBE8081:
.LBE8078:
.LBE8077:
	.loc 23 109 0
	movzwl	-34(%ebp), %esi
.LVL607:
	movzwl	%ax, %eax
.LVL608:
	movzwl	%bx, %ebx
.LVL609:
	imull	%ebx, %eax
	movzwl	%cx, %ecx
.LVL610:
	leal	(%eax,%ecx), %ecx
.LVL611:
	movzwl	%dx, %edx
.LVL612:
	imull	%edx, %ecx
	leal	-1(%esi,%ecx), %eax
	movl	%eax, -32(%ebp)
	movl	$0, -28(%ebp)
	.loc 23 112 0
	movl	-56(%ebp), %ecx
	movzwl	2(%ecx), %eax
	sall	$4, %eax
	movzwl	16(%ecx), %edx
.LVL613:
	addl	%edx, %eax
	movl	%eax, -24(%ebp)
.LBB8087:
.LBB8088:
	.file 24 "src/block.c"
	.loc 24 327 0
#APP
# 327 "src/block.c" 1
	movw %SS, %dx
# 0 "" 2
.LVL614:
#NO_APP
.LBE8088:
.LBB8089:
.LBB8090:
.LBB8091:
.LBB8092:
	.loc 10 249 0
	movl	$64, %ebx
.LVL615:
#APP
# 249 "src/biosvar.h" 1
	movw %bx, %ES
# 0 "" 2
#NO_APP
.LBB8093:
#APP
# 249 "src/biosvar.h" 1
	movw %ES:14, %si
# 0 "" 2
.LVL616:
#NO_APP
	movw	%si, -34(%ebp)
.LBE8093:
.LBE8092:
.LBE8091:
	.loc 18 92 0
	leal	-32(%ebp), %eax
	movzwl	%dx, %edx
.LVL617:
	movl	%eax, -52(%ebp)
	movl	%edx, -44(%ebp)
	movl	$__send_disk_op.14761, -48(%ebp)
	movl	$__send_disk_op.14761, %ecx
#APP
# 92 "src/stacks.c" 1
	movw %ss, %bx
movl %esp, %edi
movw %si, %ds
movw %si, %ss
movl $872, %esp
calll *%ecx
movw %bx, %ds
movw %bx, %ss
movl %edi, %esp
# 0 "" 2
.LVL618:
#NO_APP
	movl	%eax, -52(%ebp)
.LBE8090:
.LBE8089:
.LBE8087:
	.loc 23 116 0
	movl	-16(%ebp), %edx
.LVL619:
	movl	-56(%ebp), %eax
	movb	%dl, 28(%eax)
.LBB8094:
.LBB8095:
	.loc 23 25 0
	movb	-52(%ebp), %al
.LVL620:
	.loc 23 26 0
	movl	-56(%ebp), %edx
	cmpb	$0, 20(%edx)
	js	.L350
.LBB8096:
	.loc 23 27 0
	movl	$64, %ecx
#APP
# 27 "src/disk.c" 1
	movw %cx, %ES
# 0 "" 2
# 27 "src/disk.c" 1
	movb %al, %ES:65
# 0 "" 2
#NO_APP
	jmp	.L351
.L350:
.LBE8096:
.LBB8097:
	.loc 23 29 0
	movl	$64, %ebx
#APP
# 29 "src/disk.c" 1
	movw %bx, %ES
# 0 "" 2
# 29 "src/disk.c" 1
	movb %al, %ES:116
# 0 "" 2
#NO_APP
.L351:
.LBE8097:
	.loc 23 30 0
	testb	%al, %al
	je	.L352
.LBB8098:
.LBB8099:
.LBB8100:
.LBB8101:
	.loc 14 90 0
	movl	-56(%ebp), %esi
	movb	%al, 29(%esi)
.LBB8102:
.LBB8103:
	.loc 14 60 0
	orw	$1, 36(%esi)
	jmp	.L353
.L352:
.LBE8103:
.LBE8102:
.LBE8101:
.LBE8100:
.LBE8099:
.LBE8098:
.LBB8104:
.LBB8105:
	.loc 14 77 0
	movl	-56(%ebp), %edi
	movb	$0, 29(%edi)
.LBB8106:
.LBB8107:
	.loc 14 62 0
	andw	$-2, 36(%edi)
.LVL621:
.L353:
.LBE8107:
.LBE8106:
.LBE8105:
.LBE8104:
.LBE8095:
.LBE8094:
	.loc 23 119 0
	addl	$44, %esp
	popl	%ebx
.LVL622:
	popl	%esi
	popl	%edi
	leave
	ret
	.cfi_endproc
.LFE2523:
	.size	basic_access.80083, .-basic_access.80083
	.section	.text.extended_access.80147,"ax",@progbits
	.type	extended_access.80147, @function
extended_access.80147:
.LFB2524:
	.loc 23 124 0
	.cfi_startproc
.LVL623:
	pushl	%ebp
	.cfi_def_cfa_offset 8
	movl	%esp, %ebp
	.cfi_offset 5, -8
	.cfi_def_cfa_register 5
	pushl	%edi
	pushl	%esi
	pushl	%ebx
	subl	$44, %esp
	movl	%eax, -56(%ebp)
	movw	%cx, -40(%ebp)
	.loc 23 127 0
	movw	(%eax), %ax
.LVL624:
	movw	%ax, -38(%ebp)
#APP
# 127 "src/disk.c" 1
	movw %ax, %ES
# 0 "" 2
#NO_APP
.LBB8108:
.LBB8109:
	movl	-56(%ebp), %ecx
.LVL625:
	movzwl	8(%ecx), %eax
#APP
# 127 "src/disk.c" 1
	movl %ES:8(%eax), %ebx
# 0 "" 2
# 127 "src/disk.c" 1
	movl %ES:12(%eax), %ecx
# 0 "" 2
#NO_APP
.LBE8109:
.LBE8108:
.LBB8110:
.LBB8111:
	.loc 23 130 0
#APP
# 130 "src/disk.c" 1
	movl %CS:8(%edx), %edi
# 0 "" 2
# 130 "src/disk.c" 1
	movl %CS:12(%edx), %esi
# 0 "" 2
#NO_APP
.LBE8111:
.LBE8110:
	cmpl	%esi, %ecx
	jb	.L356
	.cfi_offset 3, -20
	.cfi_offset 6, -16
	.cfi_offset 7, -12
	ja	.L365
	cmpl	%edi, %ebx
	jb	.L356
.L365:
.LBB8112:
.LBB8113:
	.loc 23 26 0
	movl	-56(%ebp), %ebx
	cmpb	$0, 20(%ebx)
	js	.L358
.LBB8114:
	.loc 23 27 0
	movl	$64, %eax
#APP
# 27 "src/disk.c" 1
	movw %ax, %ES
# 0 "" 2
#NO_APP
	movb	$1, %al
#APP
# 27 "src/disk.c" 1
	movb %al, %ES:65
# 0 "" 2
#NO_APP
	jmp	.L359
.L358:
.LBE8114:
.LBB8115:
	.loc 23 29 0
	movl	$64, %eax
#APP
# 29 "src/disk.c" 1
	movw %ax, %ES
# 0 "" 2
#NO_APP
	movb	$1, %al
#APP
# 29 "src/disk.c" 1
	movb %al, %ES:116
# 0 "" 2
#NO_APP
.L359:
.LBE8115:
.LBB8116:
.LBB8117:
.LBB8118:
.LBB8119:
	.loc 14 90 0
	movl	-56(%ebp), %esi
	movb	$1, 29(%esi)
	jmp	.L366
.L356:
.LBE8119:
.LBE8118:
.LBE8117:
.LBE8116:
.LBE8113:
.LBE8112:
	.loc 23 136 0
#APP
# 136 "src/disk.c" 1
	movw -38(%ebp), %ES
# 0 "" 2
#NO_APP
.LBB8120:
#APP
# 136 "src/disk.c" 1
	movl %ES:4(%eax), %edi
# 0 "" 2
.LVL626:
#NO_APP
.LBE8120:
.LBB8121:
.LBB8122:
	.file 25 "src/farptr.h"
	.loc 25 201 0
	movl	%edi, %esi
	shrl	$16, %esi
	sall	$4, %esi
	movl	%esi, -36(%ebp)
	movzwl	%di, %esi
.LVL627:
	addl	-36(%ebp), %esi
.LVL628:
.LBE8122:
.LBE8121:
	.loc 23 127 0
	movl	%ebx, -32(%ebp)
	movl	%ecx, -28(%ebp)
	.loc 23 128 0
	movb	-40(%ebp), %cl
	movb	%cl, -14(%ebp)
	.loc 23 129 0
	movl	%edx, -20(%ebp)
	.loc 23 136 0
	movl	%esi, -24(%ebp)
	.loc 23 137 0
#APP
# 137 "src/disk.c" 1
	movw -38(%ebp), %ES
# 0 "" 2
#NO_APP
.LBB8123:
#APP
# 137 "src/disk.c" 1
	movw %ES:2(%eax), %ax
# 0 "" 2
.LVL629:
#NO_APP
.LBE8123:
	movw	%ax, -16(%ebp)
.LBB8124:
.LBB8125:
	.loc 24 327 0
#APP
# 327 "src/block.c" 1
	movw %SS, %dx
# 0 "" 2
.LVL630:
#NO_APP
.LBE8125:
.LBB8126:
.LBB8127:
.LBB8128:
.LBB8129:
	.loc 10 249 0
	movl	$64, %ebx
#APP
# 249 "src/biosvar.h" 1
	movw %bx, %ES
# 0 "" 2
#NO_APP
.LBB8130:
#APP
# 249 "src/biosvar.h" 1
	movw %ES:14, %si
# 0 "" 2
#NO_APP
	movw	%si, -36(%ebp)
.LBE8130:
.LBE8129:
.LBE8128:
	.loc 18 92 0
	leal	-32(%ebp), %eax
.LVL631:
	movzwl	%dx, %edx
.LVL632:
	movl	%eax, -52(%ebp)
	movl	%edx, -44(%ebp)
	movl	$__send_disk_op.14761, -48(%ebp)
	movl	$__send_disk_op.14761, %ecx
#APP
# 92 "src/stacks.c" 1
	movw %ss, %bx
movl %esp, %edi
movw %si, %ds
movw %si, %ss
movl $872, %esp
calll *%ecx
movw %bx, %ds
movw %bx, %ss
movl %edi, %esp
# 0 "" 2
.LVL633:
#NO_APP
	movl	%eax, -52(%ebp)
.LBE8127:
.LBE8126:
.LBE8124:
.LBB8131:
	.loc 23 141 0
	movl	-56(%ebp), %eax
#APP
# 141 "src/disk.c" 1
	movw (%eax), %ES
# 0 "" 2
#NO_APP
	movzwl	8(%eax), %edx
.LVL634:
	movl	-16(%ebp), %ecx
.LVL635:
#APP
# 141 "src/disk.c" 1
	movw %cx, %ES:2(%edx)
# 0 "" 2
#NO_APP
.LBE8131:
.LBB8132:
.LBB8133:
	.loc 23 25 0
	movb	-52(%ebp), %al
.LVL636:
	.loc 23 26 0
	movl	-56(%ebp), %edx
	cmpb	$0, 20(%edx)
	js	.L361
.LBB8134:
	.loc 23 27 0
	movl	$64, %ecx
.LVL637:
#APP
# 27 "src/disk.c" 1
	movw %cx, %ES
# 0 "" 2
# 27 "src/disk.c" 1
	movb %al, %ES:65
# 0 "" 2
#NO_APP
	jmp	.L362
.LVL638:
.L361:
.LBE8134:
.LBB8135:
	.loc 23 29 0
	movl	$64, %ebx
#APP
# 29 "src/disk.c" 1
	movw %bx, %ES
# 0 "" 2
# 29 "src/disk.c" 1
	movb %al, %ES:116
# 0 "" 2
#NO_APP
.L362:
.LBE8135:
	.loc 23 30 0
	testb	%al, %al
	je	.L363
.LBB8136:
.LBB8137:
.LBB8138:
.LBB8139:
	.loc 14 90 0
	movl	-56(%ebp), %esi
	movb	%al, 29(%esi)
.LVL639:
.L366:
.LBB8140:
.LBB8141:
	.loc 14 60 0
	orw	$1, 36(%esi)
	jmp	.L364
.LVL640:
.L363:
.LBE8141:
.LBE8140:
.LBE8139:
.LBE8138:
.LBE8137:
.LBE8136:
.LBB8142:
.LBB8143:
	.loc 14 77 0
	movl	-56(%ebp), %edi
	movb	$0, 29(%edi)
.LBB8144:
.LBB8145:
	.loc 14 62 0
	andw	$-2, 36(%edi)
.LVL641:
.L364:
.LBE8145:
.LBE8144:
.LBE8143:
.LBE8142:
.LBE8133:
.LBE8132:
	.loc 23 144 0
	addl	$44, %esp
	popl	%ebx
	popl	%esi
	popl	%edi
	leave
	ret
	.cfi_endproc
.LFE2524:
	.size	extended_access.80147, .-extended_access.80147
	.section	.text.disk_1300.80266,"ax",@progbits
	.type	disk_1300.80266, @function
disk_1300.80266:
.LFB2525:
	.loc 23 154 0
	.cfi_startproc
.LVL642:
	pushl	%ebp
	.cfi_def_cfa_offset 8
	pushl	%edi
	.cfi_def_cfa_offset 12
	pushl	%esi
	.cfi_def_cfa_offset 16
	pushl	%ebx
	.cfi_def_cfa_offset 20
	subl	$28, %esp
	.cfi_def_cfa_offset 48
	movl	%eax, %edi
	.cfi_offset 3, -20
	.cfi_offset 6, -16
	.cfi_offset 7, -12
	.cfi_offset 5, -8
	.loc 23 156 0
	movl	%edx, 20(%esp)
	.loc 23 157 0
	movb	$0, 26(%esp)
.LBB8146:
.LBB8147:
	.loc 24 327 0
#APP
# 327 "src/block.c" 1
	movw %SS, %dx
# 0 "" 2
.LVL643:
#NO_APP
.LBE8147:
.LBB8148:
.LBB8149:
.LBB8150:
.LBB8151:
	.loc 10 249 0
	movl	$64, %eax
.LVL644:
#APP
# 249 "src/biosvar.h" 1
	movw %ax, %ES
# 0 "" 2
#NO_APP
.LBB8152:
#APP
# 249 "src/biosvar.h" 1
	movw %ES:14, %bx
# 0 "" 2
#NO_APP
	movw	%bx, 4(%esp)
.LBE8152:
.LBE8151:
.LBE8150:
	.loc 18 92 0
	leal	8(%esp), %eax
	movzwl	%dx, %edx
.LVL645:
	movl	$__send_disk_op.14761, %ecx
.LVL646:
#APP
# 92 "src/stacks.c" 1
	movw %ss, %si
movl %esp, %ebp
movw %bx, %ds
movw %bx, %ss
movl $872, %esp
calll *%ecx
movw %si, %ds
movw %si, %ss
movl %ebp, %esp
# 0 "" 2
.LVL647:
#NO_APP
.LBE8149:
.LBE8148:
.LBE8146:
.LBB8153:
.LBB8154:
	.loc 23 26 0
	cmpb	$0, 20(%edi)
	js	.L368
.LBB8155:
	.loc 23 27 0
	movl	$64, %edx
.LVL648:
#APP
# 27 "src/disk.c" 1
	movw %dx, %ES
# 0 "" 2
# 27 "src/disk.c" 1
	movb %al, %ES:65
# 0 "" 2
.LVL649:
#NO_APP
	jmp	.L369
.LVL650:
.L368:
.LBE8155:
.LBB8156:
	.loc 23 29 0
	movl	$64, %ebx
#APP
# 29 "src/disk.c" 1
	movw %bx, %ES
# 0 "" 2
# 29 "src/disk.c" 1
	movb %al, %ES:116
# 0 "" 2
.LVL651:
#NO_APP
.L369:
.LBE8156:
	.loc 23 30 0
	testb	%al, %al
	je	.L370
.LBB8157:
.LBB8158:
.LBB8159:
.LBB8160:
	.loc 14 90 0
	movb	%al, 29(%edi)
.LBB8161:
.LBB8162:
	.loc 14 60 0
	orw	$1, 36(%edi)
	jmp	.L372
.L370:
.LBE8162:
.LBE8161:
.LBE8160:
.LBE8159:
.LBE8158:
.LBE8157:
.LBB8163:
.LBB8164:
	.loc 14 77 0
	movb	$0, 29(%edi)
.LBB8165:
.LBB8166:
	.loc 14 62 0
	andw	$-2, 36(%edi)
.L372:
.LBE8166:
.LBE8165:
.LBE8164:
.LBE8163:
.LBE8154:
.LBE8153:
	.loc 23 160 0
	addl	$28, %esp
	popl	%ebx
	popl	%esi
	popl	%edi
.LVL652:
	popl	%ebp
	ret
	.cfi_endproc
.LFE2525:
	.size	disk_1300.80266, .-disk_1300.80266
	.section	.text.disk_1310.80585,"ax",@progbits
	.type	disk_1310.80585, @function
disk_1310.80585:
.LFB2535:
	.loc 23 302 0
	.cfi_startproc
.LVL653:
	pushl	%ebp
	.cfi_def_cfa_offset 8
	pushl	%edi
	.cfi_def_cfa_offset 12
	pushl	%esi
	.cfi_def_cfa_offset 16
	pushl	%ebx
	.cfi_def_cfa_offset 20
	subl	$28, %esp
	.cfi_def_cfa_offset 48
	movl	%eax, %edi
	.cfi_offset 3, -20
	.cfi_offset 6, -16
	.cfi_offset 7, -12
	.cfi_offset 5, -8
	.loc 23 306 0
	movl	%edx, 20(%esp)
	.loc 23 307 0
	movb	$16, 26(%esp)
.LBB8167:
.LBB8168:
	.loc 24 327 0
#APP
# 327 "src/block.c" 1
	movw %SS, %dx
# 0 "" 2
.LVL654:
#NO_APP
.LBE8168:
.LBB8169:
.LBB8170:
.LBB8171:
.LBB8172:
	.loc 10 249 0
	movl	$64, %eax
.LVL655:
#APP
# 249 "src/biosvar.h" 1
	movw %ax, %ES
# 0 "" 2
#NO_APP
.LBB8173:
#APP
# 249 "src/biosvar.h" 1
	movw %ES:14, %bx
# 0 "" 2
#NO_APP
	movw	%bx, 4(%esp)
.LBE8173:
.LBE8172:
.LBE8171:
	.loc 18 92 0
	leal	8(%esp), %eax
	movzwl	%dx, %edx
.LVL656:
	movl	$__send_disk_op.14761, %ecx
.LVL657:
#APP
# 92 "src/stacks.c" 1
	movw %ss, %si
movl %esp, %ebp
movw %bx, %ds
movw %bx, %ss
movl $872, %esp
calll *%ecx
movw %si, %ds
movw %si, %ss
movl %ebp, %esp
# 0 "" 2
.LVL658:
#NO_APP
.LBE8170:
.LBE8169:
.LBE8167:
.LBB8174:
.LBB8175:
	.loc 23 26 0
	cmpb	$0, 20(%edi)
	js	.L374
.LBB8176:
	.loc 23 27 0
	movl	$64, %edx
.LVL659:
#APP
# 27 "src/disk.c" 1
	movw %dx, %ES
# 0 "" 2
# 27 "src/disk.c" 1
	movb %al, %ES:65
# 0 "" 2
.LVL660:
#NO_APP
	jmp	.L375
.LVL661:
.L374:
.LBE8176:
.LBB8177:
	.loc 23 29 0
	movl	$64, %ebx
#APP
# 29 "src/disk.c" 1
	movw %bx, %ES
# 0 "" 2
# 29 "src/disk.c" 1
	movb %al, %ES:116
# 0 "" 2
.LVL662:
#NO_APP
.L375:
.LBE8177:
	.loc 23 30 0
	testb	%al, %al
	je	.L376
.LBB8178:
.LBB8179:
.LBB8180:
.LBB8181:
	.loc 14 90 0
	movb	%al, 29(%edi)
.LBB8182:
.LBB8183:
	.loc 14 60 0
	orw	$1, 36(%edi)
	jmp	.L378
.L376:
.LBE8183:
.LBE8182:
.LBE8181:
.LBE8180:
.LBE8179:
.LBE8178:
.LBB8184:
.LBB8185:
	.loc 14 77 0
	movb	$0, 29(%edi)
.LBB8186:
.LBB8187:
	.loc 14 62 0
	andw	$-2, 36(%edi)
.L378:
.LBE8187:
.LBE8186:
.LBE8185:
.LBE8184:
.LBE8175:
.LBE8174:
	.loc 23 310 0
	addl	$28, %esp
	popl	%ebx
	popl	%esi
	popl	%edi
.LVL663:
	popl	%ebp
	ret
	.cfi_endproc
.LFE2535:
	.size	disk_1310.80585, .-disk_1310.80585
	.section	.text.disk_1346.80820,"ax",@progbits
	.type	disk_1346.80820, @function
disk_1346.80820:
.LFB2549:
	.loc 23 463 0
	.cfi_startproc
.LVL664:
	pushl	%ebp
	.cfi_def_cfa_offset 8
	pushl	%edi
	.cfi_def_cfa_offset 12
	pushl	%esi
	.cfi_def_cfa_offset 16
	pushl	%ebx
	.cfi_def_cfa_offset 20
	subl	$44, %esp
	.cfi_def_cfa_offset 64
	movl	%eax, %ebp
	.cfi_offset 3, -20
	.cfi_offset 6, -16
	.cfi_offset 7, -12
	.cfi_offset 5, -8
	.loc 23 464 0
	movb	20(%eax), %al
.LVL665:
	cmpb	$-33, %al
	ja	.L380
.LBB8188:
.LBB8189:
	.loc 23 26 0
	testb	%al, %al
	js	.L381
.LBB8190:
	.loc 23 27 0
	movl	$64, %eax
#APP
# 27 "src/disk.c" 1
	movw %ax, %ES
# 0 "" 2
#NO_APP
	movb	$-78, %al
#APP
# 27 "src/disk.c" 1
	movb %al, %ES:65
# 0 "" 2
#NO_APP
	jmp	.L382
.L381:
.LBE8190:
.LBB8191:
	.loc 23 29 0
	movl	$64, %eax
#APP
# 29 "src/disk.c" 1
	movw %ax, %ES
# 0 "" 2
#NO_APP
	movb	$-78, %al
#APP
# 29 "src/disk.c" 1
	movb %al, %ES:116
# 0 "" 2
#NO_APP
.L382:
.LBE8191:
.LBB8192:
.LBB8193:
.LBB8194:
.LBB8195:
	.loc 14 90 0
	movb	$-78, 29(%ebp)
	jmp	.L395
.L380:
.LBE8195:
.LBE8194:
.LBE8193:
.LBE8192:
.LBE8189:
.LBE8188:
	.loc 23 470 0
	movzbl	%al, %eax
.LBB8196:
.LBB8197:
	.loc 10 249 0
	movl	$64, %edx
.LVL666:
#APP
# 249 "src/biosvar.h" 1
	movw %dx, %ES
# 0 "" 2
#NO_APP
.LBB8198:
#APP
# 249 "src/biosvar.h" 1
	movw %ES:14, %cx
# 0 "" 2
.LVL667:
#NO_APP
.LBE8198:
.LBE8197:
.LBE8196:
	.loc 23 471 0
#APP
# 471 "src/disk.c" 1
	movw %cx, %ES
# 0 "" 2
#NO_APP
.LBB8199:
#APP
# 471 "src/disk.c" 1
	movb %ES:118(%eax), %al
# 0 "" 2
.LVL668:
#NO_APP
.LBE8199:
.LBB8200:
.LBB8201:
.LBB8202:
.LBB8203:
.LBB8204:
.LBB8205:
.LBB8206:
.LBB8207:
	.loc 14 60 0
	movl	$38, (%esp)
.LBE8207:
.LBE8206:
.LBE8205:
.LBE8204:
.LBE8203:
.LBE8202:
.LBE8201:
.LBE8200:
	.loc 23 472 0
	testb	%al, %al
	je	.L385
.LBB8210:
.LBB8209:
.LBB8208:
	.loc 23 29 0
#APP
# 29 "src/disk.c" 1
	movw %dx, %ES
# 0 "" 2
#NO_APP
	jmp	.L396
.L385:
.LBE8208:
.LBE8209:
.LBE8210:
.LBB8211:
.LBB8212:
	.loc 6 178 0
	leal	6(%esp), %eax
.LVL669:
	movl	(%esp), %edx
.LVL670:
.L393:
	decl	%edx
	movb	$0, (%eax,%edx)
	.loc 6 177 0
	testl	%edx, %edx
	jne	.L393
	movl	%edx, (%esp)
.LBE8212:
.LBE8211:
	.loc 23 483 0
	movb	$82, 35(%esp)
	.loc 23 484 0
	movb	20(%ebp), %dl
.LVL671:
	movb	%dl, 26(%esp)
.LBB8213:
.LBB8214:
.LBB8215:
	.loc 6 53 0
#APP
# 53 "src/util.c" 1
	movw %CS, 40(%esp)
# 0 "" 2
	.loc 6 56 0
#NO_APP
	movl	$irq_trampoline_0x15, %edx
	movw	%dx, 38(%esp)
.LBB8216:
.LBB8217:
	.loc 6 23 0
#APP
# 23 "src/util.c" 1
	calll __call16
cli
cld
# 0 "" 2
.LVL672:
#NO_APP
.LBE8217:
.LBE8216:
.LBE8215:
.LBE8214:
.LBE8213:
	.loc 23 487 0
	cmpb	$0, 35(%esp)
	jne	.L386
	testb	$1, 42(%esp)
	je	.L387
.L386:
.LBB8218:
.LBB8219:
	.loc 23 26 0
	cmpb	$0, 20(%ebp)
	js	.L388
.LBB8220:
	.loc 23 27 0
	movl	$64, %eax
.LVL673:
#APP
# 27 "src/disk.c" 1
	movw %ax, %ES
# 0 "" 2
#NO_APP
	movb	$-79, %al
#APP
# 27 "src/disk.c" 1
	movb %al, %ES:65
# 0 "" 2
#NO_APP
	jmp	.L389
.LVL674:
.L388:
.LBE8220:
.LBB8221:
	.loc 23 29 0
	movl	$64, %eax
.LVL675:
#APP
# 29 "src/disk.c" 1
	movw %ax, %ES
# 0 "" 2
.LVL676:
#NO_APP
.L396:
	movb	$-79, %al
.LVL677:
#APP
# 29 "src/disk.c" 1
	movb %al, %ES:116
# 0 "" 2
#NO_APP
.L389:
.LBE8221:
.LBB8222:
.LBB8223:
.LBB8224:
.LBB8225:
	.loc 14 90 0
	movb	$-79, 29(%ebp)
.LVL678:
.L395:
.LBB8226:
.LBB8227:
	.loc 14 60 0
	orw	$1, 36(%ebp)
	jmp	.L392
.LVL679:
.L387:
.LBE8227:
.LBE8226:
.LBE8225:
.LBE8224:
.LBE8223:
.LBE8222:
.LBE8219:
.LBE8218:
.LBB8228:
.LBB8229:
	.loc 23 26 0
	cmpb	$0, 20(%ebp)
	js	.L390
.LBB8230:
	.loc 23 27 0
	movl	$64, %eax
.LVL680:
#APP
# 27 "src/disk.c" 1
	movw %ax, %ES
# 0 "" 2
#NO_APP
	xorl	%eax, %eax
	movl	(%esp), %edx
#APP
# 27 "src/disk.c" 1
	movb %al, %ES:65(%edx)
# 0 "" 2
#NO_APP
	jmp	.L391
.LVL681:
.L390:
.LBE8230:
.LBB8231:
	.loc 23 29 0
	movl	$64, %eax
.LVL682:
#APP
# 29 "src/disk.c" 1
	movw %ax, %ES
# 0 "" 2
#NO_APP
	xorl	%eax, %eax
	movl	(%esp), %edx
#APP
# 29 "src/disk.c" 1
	movb %al, %ES:116(%edx)
# 0 "" 2
#NO_APP
.L391:
.LBE8231:
.LBB8232:
.LBB8233:
	.loc 14 77 0
	movb	$0, 29(%ebp)
.LBB8234:
.LBB8235:
	.loc 14 62 0
	andw	$-2, 36(%ebp)
.LVL683:
.L392:
.LBE8235:
.LBE8234:
.LBE8233:
.LBE8232:
.LBE8229:
.LBE8228:
	.loc 23 492 0
	addl	$44, %esp
	popl	%ebx
	popl	%esi
	popl	%edi
	popl	%ebp
.LVL684:
	ret
	.cfi_endproc
.LFE2549:
	.size	disk_1346.80820, .-disk_1346.80820
	.section	.text.handle_76,"ax",@progbits
.globl handle_76
	.type	handle_76, @function
handle_76:
.LFB2565:
	.loc 23 857 0
	.cfi_startproc
.LBB8236:
	.loc 23 859 0
	movl	$64, %eax
#APP
# 859 "src/disk.c" 1
	movw %ax, %ES
# 0 "" 2
#NO_APP
	movb	$-1, %al
#APP
# 859 "src/disk.c" 1
	movb %al, %ES:142
# 0 "" 2
#NO_APP
.LBE8236:
.LBB8237:
.LBB8238:
.LBB8239:
	.loc 2 82 0
	movb	$32, %al
#APP
# 82 "src/ioport.h" 1
	outb %al, $160
# 0 "" 2
#NO_APP
.LBE8239:
.LBE8238:
.LBB8240:
.LBB8241:
.LBB8242:
#APP
# 82 "src/ioport.h" 1
	outb %al, $32
# 0 "" 2
#NO_APP
.LBE8242:
.LBE8241:
.LBE8240:
.LBE8237:
	.loc 23 861 0
	ret
	.cfi_endproc
.LFE2565:
	.size	handle_76, .-handle_76
	.section	.text.handle_apm16,"ax",@progbits
.globl handle_apm16
	.type	handle_apm16, @function
handle_apm16:
.LFB2647:
	.loc 22 222 0
	.cfi_startproc
.LVL685:
	.loc 22 224 0
	jmp	handle_1553.1752
.LVL686:
	.cfi_endproc
.LFE2647:
	.size	handle_apm16, .-handle_apm16
	.section	.text.putuint.9742.clone.1,"ax",@progbits
	.type	putuint.9742.clone.1, @function
putuint.9742.clone.1:
.LFB2650:
	.loc 3 170 0
	.cfi_startproc
.LVL687:
	pushl	%ebx
	.cfi_def_cfa_offset 8
	subl	$12, %esp
	.cfi_def_cfa_offset 20
	.loc 3 174 0
	movb	$0, 11(%esp)
	leal	10(%esp), %ecx
.LVL688:
	.loc 3 176 0
	movl	$10, %ebx
	.cfi_offset 3, -8
.L403:
	xorl	%edx, %edx
	divl	%ebx
.LVL689:
	addl	$48, %edx
	movb	%dl, (%ecx)
	.loc 3 178 0
	testl	%eax, %eax
.LVL690:
	je	.L402
	.loc 3 180 0
	decl	%ecx
	jmp	.L403
.LVL691:
.L404:
.LBB8243:
.LBB8244:
.LBB8245:
.LBB8246:
.LBB8247:
.LBB8248:
.LBB8249:
	.loc 2 82 0
#APP
# 82 "src/ioport.h" 1
	outb %al, %dx
# 0 "" 2
#NO_APP
.LBE8249:
.LBE8248:
.LBE8247:
.LBE8246:
.LBE8245:
	.loc 3 151 0
	incl	%ecx
	jmp	.L406
.LVL692:
.L402:
.LBB8254:
.LBB8253:
.LBB8252:
.LBB8251:
.LBB8250:
	.loc 2 82 0
	movl	$1026, %edx
.L406:
.LBE8250:
.LBE8251:
.LBE8252:
.LBE8253:
.LBE8254:
	.loc 3 151 0
	movb	(%ecx), %al
.LVL693:
	testb	%al, %al
	jne	.L404
.LBE8244:
.LBE8243:
	.loc 3 183 0
	addl	$12, %esp
	popl	%ebx
	ret
	.cfi_endproc
.LFE2650:
	.size	putuint.9742.clone.1, .-putuint.9742.clone.1
	.section	.text.bvprintf.9806.clone.0,"ax",@progbits
	.type	bvprintf.9806.clone.0, @function
bvprintf.9806.clone.0:
.LFB2649:
	.loc 3 234 0
	.cfi_startproc
.LVL694:
	pushl	%ebp
	.cfi_def_cfa_offset 8
	pushl	%edi
	.cfi_def_cfa_offset 12
	pushl	%esi
	.cfi_def_cfa_offset 16
	pushl	%ebx
	.cfi_def_cfa_offset 20
	subl	$16, %esp
	.cfi_def_cfa_offset 36
	movl	%eax, %ecx
	movl	%edx, %ebx
	.cfi_offset 3, -20
	.cfi_offset 6, -16
	.cfi_offset 7, -12
	.cfi_offset 5, -8
.LBB8255:
.LBB8256:
.LBB8258:
.LBB8310:
.LBB8312:
.LBB8313:
.LBB8314:
.LBB8315:
.LBB8316:
.LBB8317:
	.loc 2 82 0
	movl	$1026, %edx
.LVL695:
.L460:
.LBE8317:
.LBE8316:
.LBE8315:
.LBE8314:
.LBE8313:
.LBE8312:
.LBE8310:
.LBE8258:
.LBE8256:
.LBB8326:
	.loc 3 238 0
#APP
# 238 "src/output.c" 1
	movb %CS:(%ecx), %al
# 0 "" 2
.LVL696:
#NO_APP
.LBE8326:
	.loc 3 239 0
	testb	%al, %al
	je	.L461
	.loc 3 241 0
	cmpb	$37, %al
	jne	.L464
	.loc 3 245 0
	leal	1(%ecx), %esi
.LVL697:
	movl	$0, 4(%esp)
	xorl	%eax, %eax
.LVL698:
	movl	%ecx, %ebp
	movl	%ebx, (%esp)
.LVL699:
.L412:
.LBB8327:
	.loc 3 248 0
#APP
# 248 "src/output.c" 1
	movb %CS:(%esi), %cl
# 0 "" 2
.LVL700:
#NO_APP
.LBE8327:
	movb	%cl, 15(%esp)
	.loc 3 249 0
	leal	-48(%ecx), %edi
.LVL701:
	movl	%edi, %ebx
.LVL702:
	cmpb	$9, %bl
	ja	.L411
	.loc 3 251 0
	imull	$10, %eax, %eax
.LVL703:
	movsbl	%cl,%ecx
.LVL704:
	leal	-48(%eax,%ecx), %eax
.LVL705:
	.loc 3 252 0
	incl	%esi
	jmp	.L412
.LVL706:
.L411:
	movl	%eax, 4(%esp)
	movl	%ebp, %ecx
.LVL707:
	movl	(%esp), %ebx
.LVL708:
	.loc 3 254 0
	cmpb	$108, 15(%esp)
	jne	.L413
.LVL709:
	.loc 3 256 0
	incl	%esi
.LVL710:
	.loc 3 257 0
#APP
# 257 "src/output.c" 1
	movb %CS:(%esi), %al
# 0 "" 2
.LVL711:
#NO_APP
	movb	%al, 15(%esp)
.LVL712:
.L413:
	.loc 3 261 0
	cmpb	$112, 15(%esp)
	je	.L419
	jg	.L423
	cmpb	$99, 15(%esp)
	je	.L417
	jg	.L424
	cmpb	$37, 15(%esp)
	je	.L415
	cmpb	$46, 15(%esp)
	je	.L416
	jmp	.L414
.L424:
	cmpb	$100, 15(%esp)
	je	.L418
	jmp	.L414
.L423:
	cmpb	$117, 15(%esp)
	je	.L421
	cmpb	$120, 15(%esp)
	je	.L422
	cmpb	$115, 15(%esp)
	je	.L420
	jmp	.L414
.L415:
.LBB8328:
.LBB8329:
.LBB8330:
.LBB8331:
.LBB8332:
	.loc 2 82 0
	movb	$37, %al
.LVL713:
	jmp	.L465
.LVL714:
.L418:
.LBE8332:
.LBE8331:
.LBE8330:
.LBE8329:
.LBE8328:
	.loc 3 266 0
	movl	(%ebx), %ecx
.LVL715:
	.loc 3 267 0
	testl	%ecx, %ecx
	jns	.L425
.LBB8333:
.LBB8334:
.LBB8335:
.LBB8336:
.LBB8337:
	.loc 2 82 0
	movb	$45, %al
.LVL716:
#APP
# 82 "src/ioport.h" 1
	outb %al, %dx
# 0 "" 2
#NO_APP
.LBE8337:
.LBE8336:
.LBE8335:
.LBE8334:
.LBE8333:
	.loc 3 269 0
	negl	%ecx
.LVL717:
.L425:
	.loc 3 266 0
	addl	$4, %ebx
	.loc 3 271 0
	movl	%ecx, %eax
.LVL718:
	movl	%edx, 8(%esp)
	call	putuint.9742.clone.1
.LVL719:
	jmp	.L462
.LVL720:
.L421:
	.loc 3 274 0
	leal	4(%ebx), %edi
.LVL721:
	.loc 3 275 0
	movl	(%ebx), %eax
.LVL722:
	movl	%edx, 8(%esp)
	call	putuint.9742.clone.1
	movl	%edi, %ebx
.LVL723:
.L462:
	movl	%esi, %ecx
	movl	8(%esp), %edx
	jmp	.L410
.LVL724:
.L419:
.LBB8338:
.LBB8339:
.LBB8340:
.LBB8341:
.LBB8342:
	.loc 2 82 0
	movb	$48, %al
.LVL725:
#APP
# 82 "src/ioport.h" 1
	outb %al, %dx
# 0 "" 2
#NO_APP
.LBE8342:
.LBE8341:
.LBE8340:
.LBE8339:
.LBE8338:
.LBB8343:
.LBB8344:
.LBB8345:
.LBB8346:
.LBB8347:
	movb	$120, %al
#APP
# 82 "src/ioport.h" 1
	outb %al, %dx
# 0 "" 2
#NO_APP
	movl	$8, 4(%esp)
.LVL726:
.L422:
.LBE8347:
.LBE8346:
.LBE8345:
.LBE8344:
.LBE8343:
	.loc 3 284 0
	movl	(%ebx), %ecx
.LVL727:
.LBB8348:
.LBB8257:
	.loc 3 200 0
	cmpl	$0, 4(%esp)
	jne	.L426
.LBB8309:
	.loc 3 203 0
	cmpl	$65535, %ecx
	ja	.L427
	movl	%ecx, %edi
	movl	$1, 4(%esp)
	jmp	.L428
.LVL728:
.L427:
	.loc 3 205 0
	movl	%ecx, %edi
	shrl	$16, %edi
.LVL729:
	movl	$5, 4(%esp)
.LVL730:
.L428:
	.loc 3 207 0
	cmpl	$255, %edi
	jbe	.L429
	.loc 3 208 0
	addl	$2, 4(%esp)
	.loc 3 209 0
	shrl	$8, %edi
.LVL731:
.L429:
	.loc 3 212 0
	cmpl	$16, %edi
	sbbl	$-1, 4(%esp)
.LVL732:
.L426:
.LBE8309:
	.loc 3 215 0
	cmpl	$4, 4(%esp)
	je	.L434
	jg	.L438
	cmpl	$2, 4(%esp)
	je	.L432
	jg	.L433
	cmpl	$1, 4(%esp)
	je	.L431
	jmp	.L430
.L438:
	cmpl	$6, 4(%esp)
	je	.L436
	jl	.L435
	cmpl	$7, 4(%esp)
	je	.L437
.L430:
	.loc 3 216 0
	movl	%ecx, %eax
.LVL733:
	shrl	$28, %eax
.LBB8302:
.LBB8303:
	.loc 3 189 0
	cmpl	$9, %eax
	ja	.L439
	.loc 3 190 0
	addl	$48, %eax
.LVL734:
	jmp	.L440
.LVL735:
.L439:
	.loc 3 192 0
	addl	$87, %eax
.LVL736:
.L440:
.LBB8304:
.LBB8305:
.LBB8306:
.LBB8307:
.LBB8308:
	.loc 2 82 0
#APP
# 82 "src/ioport.h" 1
	outb %al, %dx
# 0 "" 2
.LVL737:
#NO_APP
.L437:
.LBE8308:
.LBE8307:
.LBE8306:
.LBE8305:
.LBE8304:
.LBE8303:
.LBE8302:
	.loc 3 217 0
	movl	%ecx, %eax
.LVL738:
	shrl	$24, %eax
	andl	$15, %eax
.LBB8295:
.LBB8296:
	.loc 3 189 0
	cmpl	$9, %eax
	ja	.L441
	.loc 3 190 0
	addl	$48, %eax
.LVL739:
	jmp	.L442
.LVL740:
.L441:
	.loc 3 192 0
	addl	$87, %eax
.LVL741:
.L442:
.LBB8297:
.LBB8298:
.LBB8299:
.LBB8300:
.LBB8301:
	.loc 2 82 0
#APP
# 82 "src/ioport.h" 1
	outb %al, %dx
# 0 "" 2
.LVL742:
#NO_APP
.L436:
.LBE8301:
.LBE8300:
.LBE8299:
.LBE8298:
.LBE8297:
.LBE8296:
.LBE8295:
	.loc 3 218 0
	movl	%ecx, %eax
.LVL743:
	shrl	$20, %eax
	andl	$15, %eax
.LBB8288:
.LBB8289:
	.loc 3 189 0
	cmpl	$9, %eax
	ja	.L443
	.loc 3 190 0
	addl	$48, %eax
.LVL744:
	jmp	.L444
.LVL745:
.L443:
	.loc 3 192 0
	addl	$87, %eax
.LVL746:
.L444:
.LBB8290:
.LBB8291:
.LBB8292:
.LBB8293:
.LBB8294:
	.loc 2 82 0
#APP
# 82 "src/ioport.h" 1
	outb %al, %dx
# 0 "" 2
.LVL747:
#NO_APP
.L435:
.LBE8294:
.LBE8293:
.LBE8292:
.LBE8291:
.LBE8290:
.LBE8289:
.LBE8288:
	.loc 3 219 0
	movl	%ecx, %eax
.LVL748:
	shrl	$16, %eax
	andl	$15, %eax
.LBB8281:
.LBB8282:
	.loc 3 189 0
	cmpl	$9, %eax
	ja	.L445
	.loc 3 190 0
	addl	$48, %eax
.LVL749:
	jmp	.L446
.LVL750:
.L445:
	.loc 3 192 0
	addl	$87, %eax
.LVL751:
.L446:
.LBB8283:
.LBB8284:
.LBB8285:
.LBB8286:
.LBB8287:
	.loc 2 82 0
#APP
# 82 "src/ioport.h" 1
	outb %al, %dx
# 0 "" 2
.LVL752:
#NO_APP
.L434:
.LBE8287:
.LBE8286:
.LBE8285:
.LBE8284:
.LBE8283:
.LBE8282:
.LBE8281:
	.loc 3 220 0
	movl	%ecx, %eax
.LVL753:
	shrl	$12, %eax
	andl	$15, %eax
.LBB8274:
.LBB8275:
	.loc 3 189 0
	cmpl	$9, %eax
	ja	.L447
	.loc 3 190 0
	addl	$48, %eax
.LVL754:
	jmp	.L448
.LVL755:
.L447:
	.loc 3 192 0
	addl	$87, %eax
.LVL756:
.L448:
.LBB8276:
.LBB8277:
.LBB8278:
.LBB8279:
.LBB8280:
	.loc 2 82 0
#APP
# 82 "src/ioport.h" 1
	outb %al, %dx
# 0 "" 2
.LVL757:
#NO_APP
.L433:
.LBE8280:
.LBE8279:
.LBE8278:
.LBE8277:
.LBE8276:
.LBE8275:
.LBE8274:
	.loc 3 221 0
	movl	%ecx, %eax
.LVL758:
	shrl	$8, %eax
	andl	$15, %eax
.LBB8267:
.LBB8268:
	.loc 3 189 0
	cmpl	$9, %eax
	ja	.L449
	.loc 3 190 0
	addl	$48, %eax
.LVL759:
	jmp	.L450
.LVL760:
.L449:
	.loc 3 192 0
	addl	$87, %eax
.LVL761:
.L450:
.LBB8269:
.LBB8270:
.LBB8271:
.LBB8272:
.LBB8273:
	.loc 2 82 0
#APP
# 82 "src/ioport.h" 1
	outb %al, %dx
# 0 "" 2
.LVL762:
#NO_APP
.L432:
.LBE8273:
.LBE8272:
.LBE8271:
.LBE8270:
.LBE8269:
.LBE8268:
.LBE8267:
	.loc 3 222 0
	movl	%ecx, %eax
.LVL763:
	shrl	$4, %eax
	andl	$15, %eax
.LBB8260:
.LBB8261:
	.loc 3 189 0
	cmpl	$9, %eax
	ja	.L451
	.loc 3 190 0
	addl	$48, %eax
.LVL764:
	jmp	.L452
.LVL765:
.L451:
	.loc 3 192 0
	addl	$87, %eax
.LVL766:
.L452:
.LBB8262:
.LBB8263:
.LBB8264:
.LBB8265:
.LBB8266:
	.loc 2 82 0
#APP
# 82 "src/ioport.h" 1
	outb %al, %dx
# 0 "" 2
.LVL767:
#NO_APP
.L431:
.LBE8266:
.LBE8265:
.LBE8264:
.LBE8263:
.LBE8262:
.LBE8261:
.LBE8260:
	.loc 3 223 0
	movl	%ecx, %eax
.LVL768:
	andl	$15, %eax
.LBB8259:
.LBB8311:
	.loc 3 189 0
	cmpl	$9, %eax
	ja	.L453
	.loc 3 190 0
	addl	$48, %eax
.LVL769:
	jmp	.L454
.LVL770:
.L453:
	.loc 3 192 0
	addl	$87, %eax
.LVL771:
.L454:
.LBE8311:
.LBE8259:
.LBE8257:
.LBE8348:
	.loc 3 283 0
	addl	$4, %ebx
.LVL772:
.L465:
.LBB8349:
.LBB8325:
.LBB8324:
.LBB8323:
.LBB8322:
.LBB8321:
.LBB8320:
.LBB8319:
.LBB8318:
	.loc 2 82 0
#APP
# 82 "src/ioport.h" 1
	outb %al, %dx
# 0 "" 2
#NO_APP
	jmp	.L463
.LVL773:
.L417:
.LBE8318:
.LBE8319:
.LBE8320:
.LBE8321:
.LBE8322:
.LBE8323:
.LBE8324:
.LBE8325:
.LBE8349:
	.loc 3 287 0
	leal	4(%ebx), %ecx
.LVL774:
.LBB8350:
.LBB8351:
.LBB8352:
.LBB8353:
.LBB8354:
	.loc 2 82 0
	movl	(%ebx), %eax
.LVL775:
#APP
# 82 "src/ioport.h" 1
	outb %al, %dx
# 0 "" 2
#NO_APP
	movl	%ecx, %ebx
	jmp	.L463
.LVL776:
.L416:
.LBE8354:
.LBE8353:
.LBE8352:
.LBE8351:
.LBE8350:
.LBB8355:
	.loc 3 292 0
#APP
# 292 "src/output.c" 1
	movb %CS:1(%esi), %al
# 0 "" 2
.LVL777:
#NO_APP
.LBE8355:
	movl	%esi, %ecx
	cmpb	$115, %al
	jne	.L410
.LVL778:
	.loc 3 295 0
	movl	(%ebx), %ecx
.LVL779:
	jmp	.L456
.LVL780:
.L457:
.LBB8356:
.LBB8357:
.LBB8358:
.LBB8359:
.LBB8360:
.LBB8361:
.LBB8362:
	.loc 2 82 0
#APP
# 82 "src/ioport.h" 1
	outb %al, %dx
# 0 "" 2
#NO_APP
.LBE8362:
.LBE8361:
.LBE8360:
.LBE8359:
.LBE8358:
	.loc 3 151 0
	incl	%ecx
.LVL781:
.L456:
	movb	(%ecx), %al
.LVL782:
	testb	%al, %al
	jne	.L457
.LBE8357:
.LBE8356:
	.loc 3 294 0
	leal	1(%esi), %ecx
.LVL783:
	.loc 3 295 0
	addl	$4, %ebx
	jmp	.L410
.LVL784:
.L420:
	.loc 3 299 0
	movl	(%ebx), %ecx
.LVL785:
.L459:
.LBB8363:
.LBB8364:
.LBB8365:
.LBB8366:
	.loc 3 161 0
#APP
# 161 "src/output.c" 1
	movb %CS:(%ecx), %al
# 0 "" 2
.LVL786:
#NO_APP
.LBE8366:
	.loc 3 162 0
	testb	%al, %al
	jne	.L458
.LBE8365:
.LBE8364:
.LBE8363:
	.loc 3 299 0
	addl	$4, %ebx
.LVL787:
.L463:
	movl	%esi, %ecx
.LVL788:
	jmp	.L410
.LVL789:
.L458:
.LBB8374:
.LBB8373:
.LBB8372:
.LBB8367:
.LBB8368:
.LBB8369:
.LBB8370:
.LBB8371:
	.loc 2 82 0
#APP
# 82 "src/ioport.h" 1
	outb %al, %dx
# 0 "" 2
#NO_APP
.LBE8371:
.LBE8370:
.LBE8369:
.LBE8368:
.LBE8367:
.LBE8372:
	.loc 3 160 0
	incl	%ecx
.LVL790:
	jmp	.L459
.LVL791:
.L414:
.LBE8373:
.LBE8374:
.LBB8375:
.LBB8376:
.LBB8377:
.LBB8378:
.LBB8379:
	.loc 2 82 0
	movb	$37, %al
.LVL792:
.L464:
#APP
# 82 "src/ioport.h" 1
	outb %al, %dx
# 0 "" 2
.LVL793:
#NO_APP
.L410:
.LBE8379:
.LBE8378:
.LBE8377:
.LBE8376:
.LBE8375:
.LBE8255:
	.loc 3 237 0
	incl	%ecx
	jmp	.L460
.LVL794:
.L461:
	.loc 3 308 0
	addl	$16, %esp
	popl	%ebx
.LVL795:
	popl	%esi
	popl	%edi
.LVL796:
	popl	%ebp
	ret
	.cfi_endproc
.LFE2649:
	.size	bvprintf.9806.clone.0, .-bvprintf.9806.clone.0
	.section	.text.panic.1646,"ax",@progbits
	.type	panic.1646, @function
panic.1646:
.LFB319:
	.loc 3 312 0
	.cfi_startproc
.LVL797:
	.loc 3 311 0
	leal	8(%esp), %edx
.LBB8380:
	.loc 3 316 0
	movl	4(%esp), %eax
	call	bvprintf.9806.clone.0
.LBE8380:
.LBB8381:
.LBB8382:
	.loc 8 13 0
#APP
# 13 "src/util.h" 1
	cli
# 0 "" 2
#NO_APP
.L467:
.LBE8382:
.LBE8381:
.LBB8383:
.LBB8384:
	.loc 8 52 0
#APP
# 52 "src/util.h" 1
	hlt
# 0 "" 2
#NO_APP
	jmp	.L467
.LBE8384:
.LBE8383:
	.cfi_endproc
.LFE319:
	.size	panic.1646, .-panic.1646
	.section	.text.__dprintf.1654,"ax",@progbits
	.type	__dprintf.1654, @function
__dprintf.1654:
.LFB320:
	.loc 3 329 0
	.cfi_startproc
.LVL798:
	.loc 3 328 0
	leal	8(%esp), %edx
	.loc 3 344 0
	movl	4(%esp), %eax
	call	bvprintf.9806.clone.0
	.loc 3 347 0
	ret
	.cfi_endproc
.LFE320:
	.size	__dprintf.1654, .-__dprintf.1654
	.section	.rodata.str1.1
.LC3:
	.string	"ebda moved from %x to %x\n"
	.section	.text.pmm_malloc.1832,"ax",@progbits
	.type	pmm_malloc.1832, @function
pmm_malloc.1832:
.LFB145:
	.loc 4 191 0
	.cfi_startproc
.LVL799:
	pushl	%ebp
	.cfi_def_cfa_offset 8
	pushl	%edi
	.cfi_def_cfa_offset 12
	pushl	%esi
	.cfi_def_cfa_offset 16
	pushl	%ebx
	.cfi_def_cfa_offset 20
	subl	$60, %esp
	.cfi_def_cfa_offset 80
	movl	%eax, %ebp
	.cfi_offset 3, -20
	.cfi_offset 6, -16
	.cfi_offset 7, -12
	.cfi_offset 5, -8
	movl	%edx, 56(%esp)
	movl	%ecx, 28(%esp)
	.loc 4 192 0
	xorl	%edx, %edx
.LVL800:
#APP
# 192 "src/pmm.c" 1
	movw %dx, %ES
# 0 "" 2
#NO_APP
.LBB8385:
#APP
# 192 "src/pmm.c" 1
	addr32 movl %ES:ZoneTmpHigh+8, %ecx
# 0 "" 2
.LVL801:
#NO_APP
.LBE8385:
.LBB8386:
.LBB8387:
	.loc 4 123 0
#APP
# 123 "src/pmm.c" 1
	movw %dx, %ES
# 0 "" 2
#NO_APP
.LBB8388:
#APP
# 123 "src/pmm.c" 1
	addr32 movl %ES:ZoneTmpHigh+8, %ebx
# 0 "" 2
.LVL802:
#NO_APP
.LBE8388:
	.loc 4 124 0
	leal	-20(%ebx), %eax
.LVL803:
	andl	$-16, %eax
	.loc 4 125 0
#APP
# 125 "src/pmm.c" 1
	movw %dx, %ES
# 0 "" 2
#NO_APP
.LBB8389:
#APP
# 125 "src/pmm.c" 1
	addr32 movl %ES:ZoneTmpHigh+4, %esi
# 0 "" 2
.LVL804:
#NO_APP
.LBE8389:
	cmpl	%esi, %eax
	jb	.L472
	cmpl	%ebx, %eax
	ja	.L472
	.loc 4 128 0
#APP
# 128 "src/pmm.c" 1
	movw %dx, %ES
# 0 "" 2
# 128 "src/pmm.c" 1
	addr32 movl %eax, %ES:ZoneTmpHigh+8
# 0 "" 2
#NO_APP
	jmp	.L473
.L472:
	.loc 4 129 0
	xorl	%eax, %eax
.LVL805:
.L473:
.LBE8387:
.LBE8386:
	.loc 4 194 0
	movl	%eax, %ebx
.LVL806:
	.loc 4 195 0
	movl	%ecx, 24(%esp)
	testl	%eax, %eax
	jne	.L475
.LVL807:
	.loc 4 196 0
#APP
# 196 "src/pmm.c" 1
	movw %ax, %ES
# 0 "" 2
.LVL808:
#NO_APP
.LBB8390:
#APP
# 196 "src/pmm.c" 1
	addr32 movl %ES:ZoneTmpLow+8, %ecx
# 0 "" 2
.LVL809:
#NO_APP
.LBE8390:
.LBB8391:
.LBB8392:
	.loc 4 123 0
#APP
# 123 "src/pmm.c" 1
	movw %ax, %ES
# 0 "" 2
#NO_APP
.LBB8393:
#APP
# 123 "src/pmm.c" 1
	addr32 movl %ES:ZoneTmpLow+8, %edx
# 0 "" 2
.LVL810:
#NO_APP
.LBE8393:
	.loc 4 124 0
	leal	-20(%edx), %ebx
.LVL811:
	andl	$-16, %ebx
	.loc 4 125 0
#APP
# 125 "src/pmm.c" 1
	movw %ax, %ES
# 0 "" 2
#NO_APP
.LBB8394:
#APP
# 125 "src/pmm.c" 1
	addr32 movl %ES:ZoneTmpLow+4, %esi
# 0 "" 2
.LVL812:
#NO_APP
.LBE8394:
	cmpl	%esi, %ebx
	jb	.L476
	cmpl	%edx, %ebx
	ja	.L476
	.loc 4 128 0
#APP
# 128 "src/pmm.c" 1
	movw %ax, %ES
# 0 "" 2
# 128 "src/pmm.c" 1
	addr32 movl %ebx, %ES:ZoneTmpLow+8
# 0 "" 2
#NO_APP
	jmp	.L477
.L476:
	.loc 4 129 0
	xorl	%ebx, %ebx
.LVL813:
.L477:
.LBE8392:
.LBE8391:
	.loc 4 198 0
	testl	%ebx, %ebx
.LVL814:
	je	.L478
	movl	%ecx, 24(%esp)
.LVL815:
.L475:
	.loc 4 201 0
	cmpl	$ZoneLow, %ebp
	jne	.L479
.LBB8395:
.LBB8396:
	.loc 4 79 0
	xorl	%edx, %edx
.LVL816:
#APP
# 79 "src/pmm.c" 1
	movw %dx, %ES
# 0 "" 2
#NO_APP
.LBB8397:
#APP
# 79 "src/pmm.c" 1
	addr32 movl %ES:ZoneLow+8, %eax
# 0 "" 2
#NO_APP
	movl	%eax, 36(%esp)
.LBE8397:
	.loc 4 80 0
	movl	80(%esp), %ecx
.LVL817:
	negl	%ecx
	movl	%ecx, 16(%esp)
	subl	28(%esp), %eax
.LVL818:
	andl	%ecx, %eax
	.loc 4 81 0
#APP
# 81 "src/pmm.c" 1
	movw %dx, %ES
# 0 "" 2
#NO_APP
.LBB8398:
#APP
# 81 "src/pmm.c" 1
	addr32 movl %ES:ZoneLow+4, %esi
# 0 "" 2
.LVL819:
#NO_APP
.LBE8398:
	.loc 4 82 0
	cmpl	36(%esp), %eax
	ja	.L490
	cmpl	%esi, %eax
	jae	.L479
.L490:
.LBB8399:
.LBB8400:
	.loc 10 249 0
	movl	$64, %edx
#APP
# 249 "src/biosvar.h" 1
	movw %dx, %ES
# 0 "" 2
#NO_APP
.LBB8401:
#APP
# 249 "src/biosvar.h" 1
	movw %ES:14, %di
# 0 "" 2
.LVL820:
#NO_APP
.LBE8401:
.LBE8400:
.LBE8399:
	.loc 4 90 0
	movzwl	%di, %edx
	sall	$4, %edx
	movl	%edx, (%esp)
	.loc 4 91 0
#APP
# 91 "src/pmm.c" 1
	movw %di, %ES
# 0 "" 2
#NO_APP
.LBB8402:
#APP
# 91 "src/pmm.c" 1
	movb %ES:0, %cl
# 0 "" 2
#NO_APP
	movl	%ecx, %edi
.LVL821:
.LBE8402:
	.loc 4 92 0
	andl	$255, %edi
.LVL822:
	movl	%edi, %edx
	sall	$10, %edx
	movl	%edx, 32(%esp)
	addl	(%esp), %edx
	movl	%edx, 20(%esp)
	.loc 4 93 0
	cmpl	%esi, %edx
	jne	.L481
	movl	36(%esp), %ecx
	movl	%ecx, 20(%esp)
	jmp	.L482
.L481:
	.loc 4 96 0
	movl	20(%esp), %eax
	subl	28(%esp), %eax
	andl	16(%esp), %eax
.L482:
	.loc 4 98 0
	andl	$-1024, %eax
	movl	%eax, 36(%esp)
	.loc 4 99 0
	imull	$-1024, %edi, %edi
	addl	%eax, %edi
	movl	%edi, 16(%esp)
	.loc 4 100 0
	cmpl	$589823, %edi
	jbe	.L479
.LBB8403:
.LBB8404:
	.loc 4 51 0
	movl	$64, %esi
.LVL823:
#APP
# 51 "src/pmm.c" 1
	movw %si, %ES
# 0 "" 2
#NO_APP
.LBB8405:
#APP
# 51 "src/pmm.c" 1
	movw %ES:19, %ax
# 0 "" 2
.LVL824:
#NO_APP
.LBE8405:
	.loc 4 52 0
	movzwl	%ax, %eax
.LVL825:
	sall	$10, %eax
	cmpl	%eax, (%esp)
	jne	.L479
	.loc 4 58 0
	movl	%edi, %eax
	shrl	$4, %eax
	movw	%ax, 40(%esp)
.LBB8406:
.LBB8407:
	.loc 6 185 0
#APP
# 185 "src/util.c" 1
	movw %ax, %ES
# 0 "" 2
	.loc 6 187 0
#NO_APP
	movl	(%esp), %edx
	shrl	$4, %edx
	movl	%edx, 12(%esp)
	movl	32(%esp), %ecx
	movl	%ecx, 8(%esp)
	movl	$0, 4(%esp)
	xorw	%si, %si
	xorl	%edi, %edi
.LVL826:
#APP
# 187 "src/util.c" 1
	movw %ds, %ax
movw %dx, %ds
rep movsb (%si),%es:(%di)
movw %ax, %ds
# 0 "" 2
#NO_APP
.LBE8407:
.LBE8406:
	.loc 4 67 0
	pushl	16(%esp)
	.cfi_def_cfa_offset 84
	pushl	4(%esp)
	.cfi_def_cfa_offset 88
	pushl	$.LC3
	.cfi_def_cfa_offset 92
	.cfi_escape 0x2e,0xc
	call	__dprintf.1654
	addl	$12, %esp
	.cfi_def_cfa_offset 80
.LBB8408:
	.loc 4 68 0
	movl	16(%esp), %eax
	shrl	$10, %eax
	movl	$64, %edx
#APP
# 68 "src/pmm.c" 1
	movw %dx, %ES
# 0 "" 2
# 68 "src/pmm.c" 1
	movw %ax, %ES:19
# 0 "" 2
.LVL827:
#NO_APP
.LBE8408:
.LBB8409:
	.loc 4 69 0
#APP
# 69 "src/pmm.c" 1
	movw %dx, %ES
# 0 "" 2
#NO_APP
	movl	40(%esp), %ecx
#APP
# 69 "src/pmm.c" 1
	movw %cx, %ES:14
# 0 "" 2
#NO_APP
.LBE8409:
.LBE8404:
.LBE8403:
	.loc 4 110 0
	xorl	%esi, %esi
#APP
# 110 "src/pmm.c" 1
	movw %si, %ES
# 0 "" 2
#NO_APP
	movl	20(%esp), %eax
.LVL828:
#APP
# 110 "src/pmm.c" 1
	addr32 movl %eax, %ES:ZoneLow+8
# 0 "" 2
	.loc 4 111 0
# 111 "src/pmm.c" 1
	movw %si, %ES
# 0 "" 2
#NO_APP
	movl	36(%esp), %edx
#APP
# 111 "src/pmm.c" 1
	addr32 movl %edx, %ES:ZoneLow+4
# 0 "" 2
.LVL829:
#NO_APP
.L479:
.LBE8396:
.LBE8395:
	.loc 4 203 0
	xorl	%edx, %edx
.LVL830:
#APP
# 203 "src/pmm.c" 1
	movw %dx, %ES
# 0 "" 2
#NO_APP
.LBB8410:
#APP
# 203 "src/pmm.c" 1
	addr32 movl %ES:8(%ebp), %esi
# 0 "" 2
.LVL831:
#NO_APP
.LBE8410:
.LBB8411:
.LBB8412:
	.loc 4 123 0
#APP
# 123 "src/pmm.c" 1
	movw %dx, %ES
# 0 "" 2
#NO_APP
.LBB8413:
#APP
# 123 "src/pmm.c" 1
	addr32 movl %ES:8(%ebp), %ecx
# 0 "" 2
.LVL832:
#NO_APP
.LBE8413:
	.loc 4 124 0
	movl	%ecx, %eax
.LVL833:
	subl	28(%esp), %eax
	movl	80(%esp), %edi
.LVL834:
	negl	%edi
	andl	%edi, %eax
	.loc 4 125 0
#APP
# 125 "src/pmm.c" 1
	movw %dx, %ES
# 0 "" 2
#NO_APP
.LBB8414:
#APP
# 125 "src/pmm.c" 1
	addr32 movl %ES:4(%ebp), %edi
# 0 "" 2
.LVL835:
#NO_APP
.LBE8414:
	cmpl	%edi, %eax
	jb	.L483
	cmpl	%ecx, %eax
	ja	.L483
	.loc 4 128 0
#APP
# 128 "src/pmm.c" 1
	movw %dx, %ES
# 0 "" 2
# 128 "src/pmm.c" 1
	addr32 movl %eax, %ES:8(%ebp)
# 0 "" 2
#NO_APP
.LBE8412:
.LBE8411:
	.loc 4 205 0
	testl	%eax, %eax
.LVL836:
	jne	.L484
.L483:
	xorl	%edx, %edx
.LVL837:
.LBB8415:
.LBB8416:
.LBB8417:
.LBB8418:
.LBB8419:
	.loc 4 138 0
	xorl	%ecx, %ecx
.LVL838:
.L487:
	xorl	%esi, %esi
.LVL839:
#APP
# 138 "src/pmm.c" 1
	movw %cx, %ES
# 0 "" 2
#NO_APP
.LBB8420:
#APP
# 138 "src/pmm.c" 1
	addr32 movl %ES:Zones(,%edx,4), %eax
# 0 "" 2
.LVL840:
#NO_APP
.LBE8420:
	.loc 4 139 0
#APP
# 139 "src/pmm.c" 1
	movw %cx, %ES
# 0 "" 2
#NO_APP
.LBB8421:
#APP
# 139 "src/pmm.c" 1
	addr32 movl %ES:8(%eax), %edi
# 0 "" 2
.LVL841:
#NO_APP
.LBE8421:
	cmpl	%edi, %ebx
	jb	.L485
	.loc 4 140 0
#APP
# 140 "src/pmm.c" 1
	movw %cx, %ES
# 0 "" 2
#NO_APP
.LBB8422:
#APP
# 140 "src/pmm.c" 1
	addr32 movl %ES:(%eax), %edi
# 0 "" 2
.LVL842:
#NO_APP
.LBE8422:
	.loc 4 139 0
	cmpl	%edi, %ebx
	jb	.L486
.LVL843:
.L485:
.LBE8419:
	.loc 4 137 0
	incl	%edx
.LVL844:
	cmpl	$5, %edx
	jne	.L487
	jmp	.L478
.LVL845:
.L486:
.LBE8418:
.LBE8417:
	.loc 4 151 0
	testl	%eax, %eax
	je	.L478
#APP
# 151 "src/pmm.c" 1
	movw %si, %ES
# 0 "" 2
#NO_APP
.LBB8423:
#APP
# 151 "src/pmm.c" 1
	addr32 movl %ES:8(%eax), %edx
# 0 "" 2
.LVL846:
#NO_APP
.LBE8423:
	cmpl	%ebx, %edx
	jne	.L478
	.loc 4 153 0
#APP
# 153 "src/pmm.c" 1
	movw %si, %ES
# 0 "" 2
#NO_APP
	movl	24(%esp), %ecx
#APP
# 153 "src/pmm.c" 1
	addr32 movl %ecx, %ES:8(%eax)
# 0 "" 2
#NO_APP
	jmp	.L478
.LVL847:
.L484:
.LBE8416:
.LBE8415:
	.loc 4 213 0
#APP
# 213 "src/pmm.c" 1
	movw %dx, %ES
# 0 "" 2
# 213 "src/pmm.c" 1
	addr32 movl %eax, %ES:(%ebx)
# 0 "" 2
	.loc 4 214 0
# 214 "src/pmm.c" 1
	movw %dx, %ES
# 0 "" 2
# 214 "src/pmm.c" 1
	addr32 movl %esi, %ES:4(%ebx)
# 0 "" 2
	.loc 4 215 0
# 215 "src/pmm.c" 1
	movw %dx, %ES
# 0 "" 2
#NO_APP
	movl	56(%esp), %esi
.LVL848:
#APP
# 215 "src/pmm.c" 1
	addr32 movl %esi, %ES:8(%ebx)
# 0 "" 2
	.loc 4 216 0
# 216 "src/pmm.c" 1
	movw %dx, %ES
# 0 "" 2
#NO_APP
	movl	24(%esp), %ecx
.LVL849:
#APP
# 216 "src/pmm.c" 1
	addr32 movl %ecx, %ES:12(%ebx)
# 0 "" 2
	.loc 4 217 0
# 217 "src/pmm.c" 1
	movw %dx, %ES
# 0 "" 2
#NO_APP
.LBB8424:
#APP
# 217 "src/pmm.c" 1
	addr32 movl %ES:PMMAllocs, %ecx
# 0 "" 2
.LVL850:
#NO_APP
.LBE8424:
#APP
# 217 "src/pmm.c" 1
	addr32 movl %ecx, %ES:16(%ebx)
# 0 "" 2
	.loc 4 218 0
# 218 "src/pmm.c" 1
	movw %dx, %ES
# 0 "" 2
# 218 "src/pmm.c" 1
	addr32 movl %ebx, %ES:PMMAllocs
# 0 "" 2
	.loc 4 219 0
#NO_APP
	jmp	.L488
.LVL851:
.L478:
	xorl	%eax, %eax
.LVL852:
.L488:
.LVL853:
	.loc 4 220 0
	addl	$60, %esp
	popl	%ebx
.LVL854:
	popl	%esi
.LVL855:
	popl	%edi
.LVL856:
	popl	%ebp
.LVL857:
	ret	$4
	.cfi_endproc
.LFE145:
	.size	pmm_malloc.1832, .-pmm_malloc.1832
	.section	.rodata.str1.1
.LC4:
	.string	"pmm call arg1=%x\n"
	.section	.text.handle_pmm,"ax",@progbits
.globl handle_pmm
	.type	handle_pmm, @function
handle_pmm:
.LFB156:
	.loc 4 475 0
	.cfi_startproc
.LVL858:
	pushl	%ebp
	.cfi_def_cfa_offset 8
	pushl	%edi
	.cfi_def_cfa_offset 12
	pushl	%esi
	.cfi_def_cfa_offset 16
	pushl	%ebx
	.cfi_def_cfa_offset 20
	subl	$4, %esp
	.cfi_def_cfa_offset 24
	movl	%eax, %ebx
	.cfi_offset 3, -20
	.cfi_offset 6, -16
	.cfi_offset 7, -12
	.cfi_offset 5, -8
	.loc 4 479 0
	movw	(%eax), %si
.LVL859:
	.loc 4 480 0
	movzwl	%si, %eax
.LVL860:
	pushl	%eax
	.cfi_def_cfa_offset 28
	pushl	$.LC4
	.cfi_def_cfa_offset 32
	.cfi_escape 0x2e,0x8
	call	__dprintf.1654
.LVL861:
	popl	%edi
	.cfi_def_cfa_offset 28
	popl	%ebp
	.cfi_def_cfa_offset 24
	.loc 4 482 0
	cmpw	$1, %si
.LVL862:
	je	.L495
	jb	.L494
	orl	$-1, %eax
.LVL863:
	cmpw	$2, %si
	jne	.L497
	jmp	.L533
.LVL864:
.L494:
.LBB8457:
.LBB8458:
	.loc 4 388 0
	movl	2(%ebx), %ebp
.LVL865:
	movl	6(%ebx), %eax
	movl	%eax, (%esp)
	.loc 4 393 0
	movzwl	10(%ebx), %eax
	testb	$8, %al
	jne	.L498
	movl	$ZoneTmpLow, %edi
.LVL866:
	movl	$ZoneTmpHigh, %ebx
.LVL867:
	jmp	.L499
.LVL868:
.L498:
	movl	$ZoneLow, %edi
.LVL869:
	movl	$ZoneHigh, %ebx
.LVL870:
.L499:
	.loc 4 398 0
	testl	%ebp, %ebp
	jne	.L500
	.loc 4 400 0
	andl	$3, %eax
	cmpl	$2, %eax
	je	.L503
	cmpl	$3, %eax
	je	.L504
	decl	%eax
	jne	.L501
.LBB8459:
.LBB8460:
	.loc 4 269 0
#APP
# 269 "src/pmm.c" 1
	movw %bp, %ES
# 0 "" 2
#NO_APP
.LBB8461:
#APP
# 269 "src/pmm.c" 1
	addr32 movl %ES:8(%edi), %eax
# 0 "" 2
.LVL871:
#NO_APP
.LBE8461:
#APP
# 269 "src/pmm.c" 1
	movw %bp, %ES
# 0 "" 2
#NO_APP
.LBB8462:
#APP
# 269 "src/pmm.c" 1
	addr32 movl %ES:4(%edi), %edx
# 0 "" 2
.LVL872:
#NO_APP
.LBE8462:
	subl	%edx, %eax
	.loc 4 270 0
	cmpl	$ZoneTmpHigh, %edi
	je	.L506
	cmpl	$ZoneTmpLow, %edi
	jmp	.L531
.LVL873:
.L503:
.LBE8460:
.LBE8459:
.LBB8463:
.LBB8464:
	.loc 4 269 0
#APP
# 269 "src/pmm.c" 1
	movw %bp, %ES
# 0 "" 2
#NO_APP
.LBB8465:
#APP
# 269 "src/pmm.c" 1
	addr32 movl %ES:8(%ebx), %eax
# 0 "" 2
.LVL874:
#NO_APP
.LBE8465:
#APP
# 269 "src/pmm.c" 1
	movw %bp, %ES
# 0 "" 2
#NO_APP
.LBB8466:
#APP
# 269 "src/pmm.c" 1
	addr32 movl %ES:4(%ebx), %edx
# 0 "" 2
.LVL875:
#NO_APP
.LBE8466:
	subl	%edx, %eax
	.loc 4 270 0
	cmpl	$ZoneTmpHigh, %ebx
	je	.L506
	cmpl	$ZoneTmpLow, %ebx
.LVL876:
.L531:
	jne	.L497
.L506:
	.loc 4 274 0
	cmpl	$32, %eax
	jbe	.L501
	.loc 4 276 0
	subl	$32, %eax
	jmp	.L497
.LVL877:
.L504:
.LBE8464:
.LBE8463:
.LBB8467:
.LBB8468:
.LBB8469:
	.loc 4 269 0
#APP
# 269 "src/pmm.c" 1
	movw %bp, %ES
# 0 "" 2
#NO_APP
.LBB8470:
#APP
# 269 "src/pmm.c" 1
	addr32 movl %ES:8(%edi), %edx
# 0 "" 2
.LVL878:
#NO_APP
.LBE8470:
#APP
# 269 "src/pmm.c" 1
	movw %bp, %ES
# 0 "" 2
#NO_APP
.LBB8471:
#APP
# 269 "src/pmm.c" 1
	addr32 movl %ES:4(%edi), %eax
# 0 "" 2
.LVL879:
#NO_APP
.LBE8471:
	subl	%eax, %edx
	.loc 4 270 0
	cmpl	$ZoneTmpHigh, %edi
	je	.L507
	cmpl	$ZoneTmpLow, %edi
	jne	.L508
.L507:
	.loc 4 274 0
	cmpl	$32, %edx
	ja	.L509
	xorl	%edx, %edx
	jmp	.L508
.L509:
	.loc 4 276 0
	subl	$32, %edx
.L508:
.LBE8469:
.LBE8468:
.LBB8472:
.LBB8473:
	.loc 4 269 0
	xorl	%ecx, %ecx
#APP
# 269 "src/pmm.c" 1
	movw %cx, %ES
# 0 "" 2
#NO_APP
.LBB8474:
#APP
# 269 "src/pmm.c" 1
	addr32 movl %ES:8(%ebx), %eax
# 0 "" 2
.LVL880:
#NO_APP
.LBE8474:
#APP
# 269 "src/pmm.c" 1
	movw %cx, %ES
# 0 "" 2
#NO_APP
.LBB8475:
#APP
# 269 "src/pmm.c" 1
	addr32 movl %ES:4(%ebx), %ecx
# 0 "" 2
.LVL881:
#NO_APP
.LBE8475:
	subl	%ecx, %eax
	.loc 4 270 0
	cmpl	$ZoneTmpHigh, %ebx
	je	.L510
	cmpl	$ZoneTmpLow, %ebx
	jne	.L511
.L510:
	.loc 4 274 0
	cmpl	$32, %eax
	ja	.L512
	xorl	%eax, %eax
	jmp	.L511
.L512:
	.loc 4 276 0
	subl	$32, %eax
.L511:
	cmpl	%edx, %eax
	jae	.L497
.LVL882:
	movl	%edx, %eax
	jmp	.L497
.LVL883:
.L500:
.LBE8473:
.LBE8472:
.LBE8467:
	.loc 4 417 0
	sall	$4, %ebp
.LVL884:
	.loc 4 418 0
	testl	%ebp, %ebp
	jle	.L501
	.loc 4 421 0
	testb	$4, %al
	je	.L514
.LBB8476:
.LBB8477:
	.loc 8 91 0
#APP
# 91 "src/util.h" 1
	bsf %ebp,%ecx
# 0 "" 2
.LVL885:
#NO_APP
.LBE8477:
.LBE8476:
	.loc 4 422 0
	movl	$1, %esi
.LVL886:
	sall	%cl, %esi
	.loc 4 423 0
	cmpl	$15, %esi
	ja	.L515
.LVL887:
.L514:
	movl	$16, %esi
.LVL888:
.L515:
	.loc 4 426 0
	andl	$3, %eax
	cmpl	$2, %eax
	je	.L529
	cmpl	$3, %eax
	je	.L518
	decl	%eax
	jne	.L501
	.loc 4 431 0
	pushl	%esi
	.cfi_def_cfa_offset 28
	movl	%ebp, %ecx
.LVL889:
	movl	4(%esp), %edx
	movl	%edi, %eax
	jmp	.L526
	.cfi_def_cfa_offset 24
.LVL890:
.L518:
.LBB8478:
	.loc 4 435 0
	pushl	%esi
	.cfi_def_cfa_offset 28
	movl	%ebp, %ecx
.LVL891:
	movl	4(%esp), %edx
	movl	%edi, %eax
	.cfi_escape 0x2e,0x4
	call	pmm_malloc.1832
	.cfi_def_cfa_offset 24
	.loc 4 436 0
	testl	%eax, %eax
.LVL892:
	jne	.L497
.LVL893:
.L529:
	.loc 4 438 0
	pushl	%esi
	.cfi_def_cfa_offset 28
	movl	%ebp, %ecx
.LVL894:
	movl	4(%esp), %edx
	movl	%ebx, %eax
.LVL895:
.L526:
	call	pmm_malloc.1832
	.cfi_def_cfa_offset 24
	jmp	.L497
.LVL896:
.L501:
	xorl	%eax, %eax
	jmp	.L497
.LVL897:
.L495:
.LBE8478:
.LBE8458:
.LBE8457:
.LBB8479:
.LBB8480:
	.loc 4 447 0
	movl	2(%ebx), %ecx
.LVL898:
	.loc 4 449 0
	xorl	%eax, %eax
.LVL899:
	cmpl	$-1, %ecx
	je	.L497
.LBB8481:
.LBB8482:
	.loc 4 284 0
#APP
# 284 "src/pmm.c" 1
	movw %ax, %ES
# 0 "" 2
.LVL900:
#NO_APP
.LBB8483:
#APP
# 284 "src/pmm.c" 1
	addr32 movl %ES:PMMAllocs, %eax
# 0 "" 2
.LVL901:
#NO_APP
.LBE8483:
	.loc 4 285 0
	xorl	%edx, %edx
	jmp	.L521
.LVL902:
.L524:
#APP
# 285 "src/pmm.c" 1
	movw %dx, %ES
# 0 "" 2
#NO_APP
.LBB8484:
#APP
# 285 "src/pmm.c" 1
	addr32 movl %ES:8(%eax), %ebx
# 0 "" 2
.LVL903:
#NO_APP
.LBE8484:
	cmpl	%ecx, %ebx
	jne	.L522
	.loc 4 286 0
	xorl	%edx, %edx
#APP
# 286 "src/pmm.c" 1
	movw %dx, %ES
# 0 "" 2
#NO_APP
.LBB8485:
#APP
# 286 "src/pmm.c" 1
	addr32 movl %ES:(%eax), %eax
# 0 "" 2
.LVL904:
#NO_APP
	jmp	.L497
.LVL905:
.L522:
.LBE8485:
	.loc 4 284 0
#APP
# 284 "src/pmm.c" 1
	movw %dx, %ES
# 0 "" 2
#NO_APP
.LBB8486:
#APP
# 284 "src/pmm.c" 1
	addr32 movl %ES:16(%eax), %eax
# 0 "" 2
.LVL906:
#NO_APP
.L521:
.LBE8486:
	testl	%eax, %eax
	jne	.L524
	jmp	.L497
.LVL907:
.L533:
.LBE8482:
.LBE8481:
.LBE8480:
.LBE8479:
.LBB8487:
.LBB8488:
	.loc 4 460 0
	movl	2(%ebx), %eax
.LVL908:
	.cfi_escape 0x2e,0x0
	call	pmm_free.1834
	testl	%eax, %eax
.LVL909:
	setne	%al
.LVL910:
	movzbl	%al, %eax
.LVL911:
.L497:
.LVL912:
.LBE8488:
.LBE8487:
	.loc 4 488 0
	popl	%esi
	.cfi_def_cfa_offset 20
.LVL913:
	popl	%ebx
.LVL914:
	popl	%esi
	popl	%edi
.LVL915:
	popl	%ebp
.LVL916:
	ret
	.cfi_endproc
.LFE156:
	.size	handle_pmm, .-handle_pmm
	.section	.rodata.str1.1
.LC5:
	.string	"  NULL\n"
.LC6:
	.string	"   a=%08x  b=%08x  c=%08x  d=%08x ds=%04x es=%04x ss=%04x\n"
.LC7:
	.string	"  si=%08x di=%08x bp=%08x sp=%08x cs=%04x ip=%04x  f=%04x\n"
	.section	.text.dump_regs.10019,"ax",@progbits
	.type	dump_regs.10019, @function
dump_regs.10019:
.LFB325:
	.loc 3 430 0
	.cfi_startproc
.LVL917:
	pushl	%ebx
	.cfi_def_cfa_offset 8
	movl	%eax, %ebx
	.cfi_offset 3, -8
	.loc 3 431 0
	testl	%eax, %eax
	jne	.L535
	.loc 3 432 0
	pushl	$.LC5
	.cfi_def_cfa_offset 12
	.cfi_escape 0x2e,0x4
	call	__dprintf.1654
.LVL918:
	popl	%eax
	.cfi_def_cfa_offset 8
	.loc 3 433 0
	jmp	.L537
.LVL919:
.L535:
.LBB8489:
	.loc 3 435 0
#APP
# 435 "src/output.c" 1
	movw %SS, %ax
# 0 "" 2
.LVL920:
#NO_APP
.LBE8489:
	movzwl	%ax, %eax
.LVL921:
	pushl	%eax
	.cfi_def_cfa_offset 12
	movzwl	2(%ebx), %eax
.LVL922:
	pushl	%eax
	.cfi_def_cfa_offset 16
	movzwl	(%ebx), %eax
	pushl	%eax
	.cfi_def_cfa_offset 20
	pushl	20(%ebx)
	.cfi_def_cfa_offset 24
	pushl	24(%ebx)
	.cfi_def_cfa_offset 28
	pushl	16(%ebx)
	.cfi_def_cfa_offset 32
	pushl	28(%ebx)
	.cfi_def_cfa_offset 36
	pushl	$.LC6
	.cfi_def_cfa_offset 40
	.cfi_escape 0x2e,0x20
	call	__dprintf.1654
	addl	$32, %esp
	.cfi_def_cfa_offset 8
	.loc 3 438 0
	movzwl	36(%ebx), %eax
	pushl	%eax
	.cfi_def_cfa_offset 12
	movzwl	32(%ebx), %eax
	pushl	%eax
	.cfi_def_cfa_offset 16
	movzwl	34(%ebx), %eax
	pushl	%eax
	.cfi_def_cfa_offset 20
	leal	38(%ebx), %eax
	pushl	%eax
	.cfi_def_cfa_offset 24
	pushl	12(%ebx)
	.cfi_def_cfa_offset 28
	pushl	4(%ebx)
	.cfi_def_cfa_offset 32
	pushl	8(%ebx)
	.cfi_def_cfa_offset 36
	pushl	$.LC7
	.cfi_def_cfa_offset 40
	call	__dprintf.1654
	addl	$32, %esp
	.cfi_def_cfa_offset 8
.L537:
	.loc 3 441 0
	popl	%ebx
.LVL923:
	ret
	.cfi_endproc
.LFE325:
	.size	dump_regs.10019, .-dump_regs.10019
	.section	.rodata.str1.1
.LC8:
	.string	"enter %s:\n"
	.section	.text.handle_05,"ax",@progbits
.globl handle_05
	.type	handle_05, @function
handle_05:
.LFB75:
	.loc 1 44 0
	.cfi_startproc
.LVL924:
	subl	$4, %esp
	.cfi_def_cfa_offset 8
.LBB8490:
.LBB8491:
	.loc 3 456 0
	pushl	$__func__.2025
	.cfi_def_cfa_offset 12
	pushl	$.LC8
	.cfi_def_cfa_offset 16
	movl	%eax, 8(%esp)
.LVL925:
	.cfi_escape 0x2e,0x8
	call	__dprintf.1654
	.loc 3 457 0
	movl	8(%esp), %eax
.LBE8491:
.LBE8490:
	.loc 1 46 0
	addl	$12, %esp
.LBB8493:
.LBB8492:
	.loc 3 457 0
	jmp	dump_regs.10019
	.cfi_def_cfa_offset 8
.LBE8492:
.LBE8493:
	.cfi_endproc
.LFE75:
	.size	handle_05, .-handle_05
	.section	.rodata.str1.1
.LC9:
	.string	"KBD: int09 handler: AL=0\n"
.LC10:
	.string	"KBD: int09h_handler(): unknown scancode read: 0x%02x!\n"
.LC11:
	.string	"KBD: scancode & asciicode are zero?\n"
	.section	.text.__process_key.27270,"ax",@progbits
	.type	__process_key.27270, @function
__process_key.27270:
.LFB870:
	.loc 11 377 0
	.cfi_startproc
.LVL926:
	pushl	%ebp
	.cfi_def_cfa_offset 8
	pushl	%edi
	.cfi_def_cfa_offset 12
	pushl	%esi
	.cfi_def_cfa_offset 16
	pushl	%ebx
	.cfi_def_cfa_offset 20
	subl	$24, %esp
	.cfi_def_cfa_offset 44
	.loc 11 378 0
	movl	$64, %ecx
#APP
# 378 "src/kbd.c" 1
	movw %cx, %ES
# 0 "" 2
#NO_APP
.LBB8494:
#APP
# 378 "src/kbd.c" 1
	movb %ES:23, %dl
# 0 "" 2
.LVL927:
#NO_APP
.LBE8494:
	.loc 11 379 0
#APP
# 379 "src/kbd.c" 1
	movw %cx, %ES
# 0 "" 2
#NO_APP
.LBB8495:
#APP
# 379 "src/kbd.c" 1
	movb %ES:24, %bl
# 0 "" 2
#NO_APP
	movl	%ebx, %esi
	.cfi_offset 3, -20
	.cfi_offset 6, -16
	.cfi_offset 7, -12
	.cfi_offset 5, -8
.LVL928:
.LBE8495:
	.loc 11 380 0
#APP
# 380 "src/kbd.c" 1
	movw %cx, %ES
# 0 "" 2
#NO_APP
.LBB8496:
#APP
# 380 "src/kbd.c" 1
	movb %ES:150, %bl
# 0 "" 2
.LVL929:
#NO_APP
.LBE8496:
	.loc 11 382 0
	movzbl	%bl, %edi
	movl	%edi, 16(%esp)
	andl	$1, %edi
	je	.L541
	.loc 11 384 0
	andl	$127, %eax
.LVL930:
	cmpl	$29, %eax
	je	.L583
	.loc 11 388 0
	andl	$-2, %ebx
.LVL931:
.LBB8497:
	.loc 11 389 0
#APP
# 389 "src/kbd.c" 1
	movw %cx, %ES
# 0 "" 2
# 389 "src/kbd.c" 1
	movb %bl, %ES:150
# 0 "" 2
#NO_APP
	jmp	.L583
.LVL932:
.L541:
.LBE8497:
	.loc 11 403 0
	cmpb	$-99, %al
	je	.L552
	ja	.L561
	cmpb	$54, %al
	je	.L547
	ja	.L562
	cmpb	$29, %al
	je	.L545
	cmpb	$42, %al
	je	.L546
	testb	%al, %al
	je	.L544
	jmp	.L543
.L562:
	cmpb	$58, %al
	je	.L549
	ja	.L563
	cmpb	$56, %al
	jne	.L543
	jmp	.L590
.L563:
	cmpb	$69, %al
	je	.L550
	cmpb	$70, %al
	jne	.L543
	jmp	.L591
.L561:
	cmpb	$-70, %al
	je	.L556
	ja	.L564
	cmpb	$-74, %al
	je	.L554
	cmpb	$-72, %al
	je	.L555
	cmpb	$-86, %al
	jne	.L543
	jmp	.L592
.L564:
	cmpb	$-58, %al
	je	.L558
	ja	.L565
	cmpb	$-59, %al
	jne	.L543
	jmp	.L593
.L565:
	cmpb	$-32, %al
	je	.L559
	cmpb	$-31, %al
	jne	.L543
	jmp	.L594
.L544:
.LBB8498:
	.loc 11 405 0
	pushl	$.LC9
	.cfi_def_cfa_offset 48
	.cfi_escape 0x2e,0x4
	call	__dprintf.1654
.LVL933:
	popl	%esi
	.cfi_def_cfa_offset 44
.LVL934:
	.loc 11 406 0
	jmp	.L583
.LVL935:
.L549:
	.loc 11 409 0
	xorl	$64, %edx
.LVL936:
	.loc 11 410 0
	orl	$64, %esi
.LVL937:
	.loc 11 411 0
	jmp	.L566
.LVL938:
.L556:
	.loc 11 413 0
	andl	$-65, %esi
.LVL939:
	.loc 11 414 0
	jmp	.L566
.LVL940:
.L546:
	.loc 11 417 0
	orl	$2, %edx
.LVL941:
	.loc 11 418 0
	jmp	.L566
.LVL942:
.L592:
	.loc 11 420 0
	andl	$-3, %edx
.LVL943:
	.loc 11 421 0
	jmp	.L566
.LVL944:
.L547:
	.loc 11 424 0
	orl	$1, %edx
.LVL945:
	.loc 11 425 0
	jmp	.L566
.LVL946:
.L554:
	.loc 11 427 0
	andl	$-2, %edx
.LVL947:
	.loc 11 428 0
	jmp	.L566
.LVL948:
.L545:
	.loc 11 431 0
	orl	$4, %edx
.LVL949:
	.loc 11 432 0
	testb	$2, 16(%esp)
	je	.L567
	.loc 11 433 0
	orl	$4, %ebx
.LVL950:
	jmp	.L566
.LVL951:
.L567:
	.loc 11 435 0
	orl	$1, %esi
.LVL952:
	jmp	.L566
.LVL953:
.L552:
	.loc 11 438 0
	andl	$-5, %edx
.LVL954:
	.loc 11 439 0
	testb	$2, 16(%esp)
	je	.L568
	.loc 11 440 0
	andl	$-5, %ebx
.LVL955:
	jmp	.L566
.LVL956:
.L568:
	.loc 11 442 0
	andl	$-2, %esi
.LVL957:
	jmp	.L566
.LVL958:
.L590:
	.loc 11 446 0
	orl	$8, %edx
.LVL959:
	.loc 11 447 0
	testb	$2, 16(%esp)
	je	.L569
	.loc 11 448 0
	orl	$8, %ebx
.LVL960:
	jmp	.L566
.LVL961:
.L569:
	.loc 11 450 0
	orl	$2, %esi
.LVL962:
	jmp	.L566
.LVL963:
.L555:
	.loc 11 453 0
	andl	$-9, %edx
.LVL964:
	.loc 11 454 0
	testb	$2, 16(%esp)
	je	.L570
	.loc 11 455 0
	andl	$-9, %ebx
.LVL965:
	jmp	.L566
.LVL966:
.L570:
	.loc 11 457 0
	andl	$-3, %esi
.LVL967:
	jmp	.L566
.LVL968:
.L550:
	.loc 11 461 0
	orl	$32, %esi
.LVL969:
	.loc 11 462 0
	xorl	$32, %edx
.LVL970:
	.loc 11 463 0
	jmp	.L566
.LVL971:
.L593:
	.loc 11 465 0
	andl	$-33, %esi
.LVL972:
	.loc 11 466 0
	jmp	.L566
.LVL973:
.L591:
	.loc 11 469 0
	orl	$16, %esi
.LVL974:
	.loc 11 470 0
	xorl	$16, %edx
.LVL975:
	.loc 11 471 0
	jmp	.L566
.LVL976:
.L558:
	.loc 11 473 0
	andl	$-17, %esi
.LVL977:
	.loc 11 474 0
	jmp	.L566
.LVL978:
.L559:
	.loc 11 478 0
	orl	$2, %ebx
.LVL979:
.LBB8499:
	.loc 11 479 0
#APP
# 479 "src/kbd.c" 1
	movw %cx, %ES
# 0 "" 2
# 479 "src/kbd.c" 1
	movb %bl, %ES:150(%edi)
# 0 "" 2
#NO_APP
	jmp	.L583
.LVL980:
.L594:
.LBE8499:
	.loc 11 483 0
	orl	$1, %ebx
.LVL981:
	.loc 11 484 0
	jmp	.L566
.LVL982:
.L543:
	.loc 11 487 0
	testb	%al, %al
	js	.L566
	.loc 11 490 0
	cmpb	$83, %al
	jne	.L572
	movl	%edx, %ecx
.LVL983:
	andl	$12, %ecx
	cmpl	$12, %ecx
	jne	.L573
.LBB8500:
	.loc 11 494 0
	movl	$64, %eax
.LVL984:
#APP
# 494 "src/kbd.c" 1
	movw %ax, %ES
# 0 "" 2
#NO_APP
	movl	$4660, %eax
#APP
# 494 "src/kbd.c" 1
	movw %ax, %ES:114
# 0 "" 2
#NO_APP
.LBE8500:
	.loc 11 495 0
	.cfi_escape 0x2e,0x0
	call	reset_vector
.LVL985:
.L572:
	.loc 11 497 0
	cmpb	$88, %al
	jbe	.L573
	.loc 11 498 0
	movzbl	%al, %eax
.LVL986:
	pushl	%eax
	.cfi_def_cfa_offset 48
	pushl	$.LC10
	.cfi_def_cfa_offset 52
	.cfi_escape 0x2e,0x8
	call	__dprintf.1654
.LVL987:
	popl	%ecx
	.cfi_def_cfa_offset 48
	popl	%ebx
	.cfi_def_cfa_offset 44
.LVL988:
	.loc 11 500 0
	jmp	.L583
.LVL989:
.L573:
	.loc 11 503 0
	movzbl	%al, %edi
.LVL990:
	imull	$10, %edi, %edi
.LVL991:
	leal	scan_to_scanascii.27268(%edi), %ecx
.LVL992:
	.loc 11 504 0
	movzbl	%dl, %ebp
	testl	$8, %ebp
	je	.L574
.LBB8501:
	.loc 11 505 0
#APP
# 505 "src/kbd.c" 1
	movw %CS:6(%ecx), %ax
# 0 "" 2
.LVL993:
#NO_APP
	jmp	.L584
.LVL994:
.L574:
.LBE8501:
	.loc 11 507 0
	testl	$4, %ebp
	je	.L576
.LBB8502:
	.loc 11 508 0
#APP
# 508 "src/kbd.c" 1
	movw %CS:4(%ecx), %ax
# 0 "" 2
.LVL995:
#NO_APP
	jmp	.L584
.LVL996:
.L576:
.LBE8502:
	.loc 11 510 0
	testb	$2, 16(%esp)
	je	.L577
	cmpb	$70, %al
.LVL997:
	jbe	.L577
	cmpb	$83, %al
	ja	.L577
.LBB8503:
	.loc 11 514 0
#APP
# 514 "src/kbd.c" 1
	movw %CS:scan_to_scanascii.27268(%edi), %ax
# 0 "" 2
.LVL998:
#NO_APP
.LBE8503:
	shrw	$8, %ax
.LVL999:
	movb	$-32, %cl
.LVL1000:
	.loc 11 510 0
	jmp	.L575
.LVL1001:
.L577:
	.loc 11 515 0
	andl	$3, %ebp
	je	.L578
.LBB8504:
	.loc 11 519 0
#APP
# 519 "src/kbd.c" 1
	movb %CS:8(%ecx), %al
# 0 "" 2
.LVL1002:
#NO_APP
.LBE8504:
	testb	%dl, %al
	je	.L579
.LBB8505:
	.loc 11 520 0
#APP
# 520 "src/kbd.c" 1
	movw %CS:scan_to_scanascii.27268(%edi), %ax
# 0 "" 2
.LVL1003:
#NO_APP
	jmp	.L584
.LVL1004:
.L579:
.LBE8505:
.LBB8506:
	.loc 11 523 0
#APP
# 523 "src/kbd.c" 1
	movw %CS:2(%ecx), %ax
# 0 "" 2
.LVL1005:
#NO_APP
	jmp	.L584
.LVL1006:
.L578:
.LBE8506:
.LBB8507:
	.loc 11 528 0
#APP
# 528 "src/kbd.c" 1
	movb %CS:8(%ecx), %al
# 0 "" 2
.LVL1007:
#NO_APP
.LBE8507:
	testb	%dl, %al
	je	.L580
.LBB8508:
	.loc 11 529 0
#APP
# 529 "src/kbd.c" 1
	movw %CS:2(%ecx), %ax
# 0 "" 2
.LVL1008:
#NO_APP
	jmp	.L584
.LVL1009:
.L580:
.LBE8508:
.LBB8509:
	.loc 11 532 0
#APP
# 532 "src/kbd.c" 1
	movw %CS:scan_to_scanascii.27268(%edi), %ax
# 0 "" 2
.LVL1010:
#NO_APP
.L584:
.LBE8509:
	movb	%al, %cl
.LVL1011:
	.loc 11 533 0
	shrw	$8, %ax
.LVL1012:
.L575:
	.loc 11 536 0
	testb	%al, %al
	jne	.L581
	testb	%cl, %cl
	jne	.L581
	.loc 11 537 0
	pushl	$.LC11
	.cfi_def_cfa_offset 48
	movb	%al, 16(%esp)
.LVL1013:
	movb	%dl, 8(%esp)
.LVL1014:
	movb	%cl, 12(%esp)
.LVL1015:
	.cfi_escape 0x2e,0x4
	call	__dprintf.1654
	popl	%edx
	.cfi_def_cfa_offset 44
	movb	8(%esp), %cl
	movb	4(%esp), %dl
	movb	12(%esp), %al
.LVL1016:
.L581:
.LBB8510:
.LBB8511:
	.loc 11 53 0
	movl	$64, %edi
#APP
# 53 "src/kbd.c" 1
	movw %di, %ES
# 0 "" 2
#NO_APP
.LBB8512:
#APP
# 53 "src/kbd.c" 1
	movw %ES:128, %bp
# 0 "" 2
#NO_APP
	movw	%bp, 16(%esp)
.LBE8512:
	.loc 11 54 0
#APP
# 54 "src/kbd.c" 1
	movw %di, %ES
# 0 "" 2
#NO_APP
.LBB8513:
#APP
# 54 "src/kbd.c" 1
	movw %ES:130, %bp
# 0 "" 2
#NO_APP
	movw	%bp, 20(%esp)
.LBE8513:
	.loc 11 56 0
#APP
# 56 "src/kbd.c" 1
	movw %di, %ES
# 0 "" 2
#NO_APP
.LBB8514:
#APP
# 56 "src/kbd.c" 1
	movw %ES:26, %bp
# 0 "" 2
#NO_APP
	movw	%bp, 22(%esp)
.LBE8514:
	.loc 11 57 0
#APP
# 57 "src/kbd.c" 1
	movw %di, %ES
# 0 "" 2
#NO_APP
.LBB8515:
#APP
# 57 "src/kbd.c" 1
	movw %ES:28, %di
# 0 "" 2
#NO_APP
	movw	%di, 2(%esp)
.LBE8515:
	.loc 11 60 0
	addl	$2, %edi
.LVL1017:
	.loc 11 61 0
	cmpw	20(%esp), %di
	jb	.L582
	movl	16(%esp), %edi
.LVL1018:
.L582:
	.loc 11 64 0
	cmpw	22(%esp), %di
	je	.L566
.LBB8516:
	.loc 11 67 0
	movl	$64, %ebp
#APP
# 67 "src/kbd.c" 1
	movw %bp, %ES
# 0 "" 2
#NO_APP
	movzwl	2(%esp), %ebp
#APP
# 67 "src/kbd.c" 1
	movb %cl, %ES:(%ebp)
# 0 "" 2
#NO_APP
.LBE8516:
.LBB8517:
	.loc 11 68 0
	movl	$64, %ecx
.LVL1019:
#APP
# 68 "src/kbd.c" 1
	movw %cx, %ES
# 0 "" 2
# 68 "src/kbd.c" 1
	movb %al, %ES:1(%ebp)
# 0 "" 2
#NO_APP
.LBE8517:
.LBB8518:
	.loc 11 69 0
#APP
# 69 "src/kbd.c" 1
	movw %cx, %ES
# 0 "" 2
# 69 "src/kbd.c" 1
	movw %di, %ES:28
# 0 "" 2
.LVL1020:
#NO_APP
.L566:
.LBE8518:
.LBE8511:
.LBE8510:
.LBE8498:
	.loc 11 541 0
	andl	$-3, %ebx
.LVL1021:
.LBB8519:
	.loc 11 543 0
	movl	$64, %eax
.LVL1022:
#APP
# 543 "src/kbd.c" 1
	movw %ax, %ES
# 0 "" 2
# 543 "src/kbd.c" 1
	movb %dl, %ES:23
# 0 "" 2
#NO_APP
.LBE8519:
.LBB8520:
	.loc 11 544 0
#APP
# 544 "src/kbd.c" 1
	movw %ax, %ES
# 0 "" 2
#NO_APP
	movl	%esi, %edx
.LVL1023:
#APP
# 544 "src/kbd.c" 1
	movb %dl, %ES:24
# 0 "" 2
#NO_APP
.LBE8520:
.LBB8521:
	.loc 11 545 0
#APP
# 545 "src/kbd.c" 1
	movw %ax, %ES
# 0 "" 2
# 545 "src/kbd.c" 1
	movb %bl, %ES:150
# 0 "" 2
.LVL1024:
#NO_APP
.L583:
.LBE8521:
	.loc 11 546 0
	addl	$24, %esp
	popl	%ebx
.LVL1025:
	popl	%esi
.LVL1026:
	popl	%edi
.LVL1027:
	popl	%ebp
	ret
	.cfi_endproc
.LFE870:
	.size	__process_key.27270, .-__process_key.27270
	.section	.text.process_key.1705,"ax",@progbits
	.type	process_key.1705, @function
process_key.1705:
.LFB871:
	.loc 11 550 0
	.cfi_startproc
.LVL1028:
	pushl	%edi
	.cfi_def_cfa_offset 8
	pushl	%esi
	.cfi_def_cfa_offset 12
	pushl	%ebx
	.cfi_def_cfa_offset 16
.LBB8522:
	.loc 11 558 0
	movzbl	%al, %eax
.LVL1029:
	orb	$79, %ah
#APP
# 558 "src/kbd.c" 1
	pushl %ebp
sti
stc
int $21
pushfl
popl %ecx
cli
cld
popl %ebp
# 0 "" 2
.LVL1030:
	.loc 11 559 0
#NO_APP
	andb	$1, %cl
.LVL1031:
	je	.L597
	.cfi_offset 3, -16
	.cfi_offset 6, -12
	.cfi_offset 7, -8
.LBE8522:
	.loc 11 563 0
	movzbl	%al, %eax
.LVL1032:
	.loc 11 564 0
	popl	%ebx
	popl	%esi
	popl	%edi
	.loc 11 563 0
	jmp	__process_key.27270
.LVL1033:
.L597:
	.loc 11 564 0
	popl	%ebx
	popl	%esi
	popl	%edi
	ret
	.cfi_endproc
.LFE871:
	.size	process_key.1705, .-process_key.1705
	.section	.text.prockeys.72633,"ax",@progbits
	.type	prockeys.72633, @function
prockeys.72633:
.LFB2276:
	.file 26 "src/usb-hid.c"
	.loc 26 127 0
	.cfi_startproc
.LVL1034:
	pushl	%ebx
	.cfi_def_cfa_offset 8
	movl	%eax, %ebx
	.cfi_offset 3, -8
	.loc 26 128 0
	cmpw	$255, %ax
	jbe	.L599
.LBB8523:
	.loc 26 129 0
	shrw	$8, %ax
.LVL1035:
	.loc 26 130 0
	cmpb	$-31, %al
.LVL1036:
	jne	.L600
	.loc 26 132 0
	movl	$225, %eax
.LVL1037:
	call	process_key.1705
	.loc 26 133 0
	andl	$-128, %ebx
.LVL1038:
	movb	%bl, %al
	orl	$29, %eax
	movzbl	%al, %eax
	call	process_key.1705
	.loc 26 134 0
	orl	$69, %ebx
	jmp	.L599
.LVL1039:
.L600:
	.loc 26 137 0
	movzbl	%al, %eax
.LVL1040:
	call	process_key.1705
.LVL1041:
.L599:
.LBE8523:
	.loc 26 139 0
	movzbl	%bl, %eax
.LVL1042:
	.loc 26 140 0
	popl	%ebx
	.loc 26 139 0
	jmp	process_key.1705
.LVL1043:
	.cfi_endproc
.LFE2276:
	.size	prockeys.72633, .-prockeys.72633
	.section	.text.handle_key.72733,"ax",@progbits
	.type	handle_key.72733, @function
handle_key.72733:
.LFB2279:
	.loc 26 166 0
	.cfi_startproc
.LVL1044:
	pushl	%ebp
	.cfi_def_cfa_offset 8
	movl	%esp, %ebp
	.cfi_offset 5, -8
	.cfi_def_cfa_register 5
	pushl	%edi
	pushl	%esi
	pushl	%ebx
	subl	$24, %esp
	movl	%eax, %esi
	.cfi_offset 3, -20
	.cfi_offset 6, -16
	.cfi_offset 7, -12
.LBB8524:
.LBB8525:
	.loc 10 249 0
	movl	$64, %eax
.LVL1045:
#APP
# 249 "src/biosvar.h" 1
	movw %ax, %ES
# 0 "" 2
#NO_APP
.LBB8526:
#APP
# 249 "src/biosvar.h" 1
	movw %ES:14, %ax
# 0 "" 2
#NO_APP
	movw	%ax, -30(%ebp)
.LBE8526:
.LBE8525:
.LBE8524:
	.loc 26 172 0
#APP
# 172 "src/usb-hid.c" 1
	movw %ax, %ES
# 0 "" 2
#NO_APP
.LBB8527:
.LBB8528:
#APP
# 172 "src/usb-hid.c" 1
	movl %ES:290, %edx
# 0 "" 2
# 172 "src/usb-hid.c" 1
	movl %ES:294, %eax
# 0 "" 2
#NO_APP
.LBE8528:
.LBE8527:
	movl	%edx, -20(%ebp)
	movl	%eax, -16(%ebp)
	movb	-19(%ebp), %dl
	movl	$1, %edi
	xorl	%ebx, %ebx
.LVL1046:
.LVL1047:
.L611:
.LBB8529:
	.loc 26 178 0
	movb	-19(%ebp,%edi), %al
.LVL1048:
	.loc 26 179 0
	testb	%al, %al
	jne	.L603
	jmp	.L627
.L629:
.LBB8530:
.LBB8531:
	.loc 26 145 0
	cmpb	$99, %al
	ja	.L605
.LBB8532:
	.loc 26 147 0
	movzbl	%al, %eax
.LVL1049:
#APP
# 147 "src/usb-hid.c" 1
	movw %CS:KeyToScanCode.72626(%eax,%eax), %ax
# 0 "" 2
.LVL1050:
#NO_APP
.LBE8532:
	.loc 26 148 0
	testw	%ax, %ax
	je	.L605
	.loc 26 149 0
	orb	$-128, %al
.LVL1051:
	movzwl	%ax, %eax
	movb	%dl, -36(%ebp)
	call	prockeys.72633
.LVL1052:
	movb	-36(%ebp), %dl
.LVL1053:
.L605:
.LBE8531:
.LBE8530:
	.loc 26 186 0
	cmpl	$6, %edi
	je	.L606
	cmpb	$0, -18(%ebp,%edi)
	jne	.L607
.L606:
	movb	$-1, %dl
	jmp	.L607
.LVL1054:
.L603:
	xorl	%ecx, %ecx
.LVL1055:
.L610:
	.loc 26 191 0
	cmpb	%al, 2(%esi,%ecx)
	jne	.L608
	.loc 26 193 0
	movb	$0, 2(%esi,%ecx)
	.loc 26 194 0
	movb	%al, -18(%ebp,%ebx)
	incl	%ebx
.LVL1056:
	.loc 26 195 0
	jmp	.L607
.L608:
	.loc 26 182 0
	incl	%ecx
.LVL1057:
	.loc 26 183 0
	cmpl	$6, %ecx
	jne	.L610
	jmp	.L629
.LVL1058:
.L607:
	incl	%edi
.LBE8529:
	.loc 26 177 0
	cmpl	$7, %edi
	jne	.L611
.L627:
	movb	%dl, -19(%ebp)
	.loc 26 199 0
	movb	-20(%ebp), %cl
.LVL1059:
	movb	%cl, -31(%ebp)
	movb	(%esi), %dl
.LVL1060:
	notl	%edx
.LVL1061:
	andl	%ecx, %edx
.LVL1062:
	movl	$ModifierToScanCode.72627, -28(%ebp)
	movl	$ModifierToScanCode.72627, -24(%ebp)
	xorl	%edi, %edi
.LVL1063:
	jmp	.L612
.LVL1064:
.L614:
.LBB8533:
.LBB8534:
	.loc 26 157 0
	movzbl	%dl, %eax
.LVL1065:
	btl	%edi, %eax
	jnc	.L613
.LBB8535:
	.loc 26 159 0
	movl	-24(%ebp), %ecx
#APP
# 159 "src/usb-hid.c" 1
	movw %CS:(%ecx), %ax
# 0 "" 2
.LVL1066:
#NO_APP
.LBE8535:
	orb	$-128, %al
	movzwl	%ax, %eax
	movb	%dl, -36(%ebp)
	call	prockeys.72633
	.loc 26 160 0
	movl	$1, %eax
	movl	%edi, %ecx
.LVL1067:
	sall	%cl, %eax
	notl	%eax
	movb	-36(%ebp), %dl
	andl	%eax, %edx
.LVL1068:
.L613:
	.loc 26 156 0
	incl	%edi
.LVL1069:
	addl	$2, -24(%ebp)
.LVL1070:
.L612:
	testb	%dl, %dl
	jne	.L614
.LBE8534:
.LBE8533:
	.loc 26 202 0
	movb	-31(%ebp), %dl
.LVL1071:
	notl	%edx
.LVL1072:
	andb	(%esi), %dl
.LVL1073:
	xorl	%edi, %edi
.LVL1074:
	jmp	.L615
.LVL1075:
.L617:
.LBB8536:
.LBB8537:
	.loc 26 157 0
	movzbl	%dl, %eax
.LVL1076:
	btl	%edi, %eax
	jnc	.L616
.LBB8538:
	.loc 26 159 0
	movl	-28(%ebp), %ecx
#APP
# 159 "src/usb-hid.c" 1
	movw %CS:(%ecx), %ax
# 0 "" 2
.LVL1077:
#NO_APP
.LBE8538:
	movzwl	%ax, %eax
.LVL1078:
	movb	%dl, -36(%ebp)
	call	prockeys.72633
.LVL1079:
	.loc 26 160 0
	movl	$1, %eax
	movl	%edi, %ecx
.LVL1080:
	sall	%cl, %eax
	notl	%eax
	movb	-36(%ebp), %dl
	andl	%eax, %edx
.LVL1081:
.L616:
	.loc 26 156 0
	incl	%edi
.LVL1082:
	addl	$2, -28(%ebp)
.LVL1083:
.L615:
	testb	%dl, %dl
	jne	.L617
.LBE8537:
.LBE8536:
	.loc 26 203 0
	movb	(%esi), %al
.LVL1084:
	movb	%al, -20(%ebp)
	movb	-19(%ebp), %al
	xorl	%edi, %edi
.LVL1085:
.L620:
.LBB8539:
	.loc 26 205 0
	movb	2(%esi,%edi), %dl
.LVL1086:
	.loc 26 206 0
	testb	%dl, %dl
	je	.L618
.LBB8540:
.LBB8541:
	.loc 26 145 0
	cmpb	$99, %dl
	ja	.L619
.LBB8542:
	.loc 26 147 0
	movzbl	%dl, %eax
.LVL1087:
#APP
# 147 "src/usb-hid.c" 1
	movw %CS:KeyToScanCode.72626(%eax,%eax), %ax
# 0 "" 2
.LVL1088:
#NO_APP
.LBE8542:
	.loc 26 148 0
	testw	%ax, %ax
	je	.L619
	.loc 26 149 0
	movzwl	%ax, %eax
.LVL1089:
	movb	%dl, -36(%ebp)
	call	prockeys.72633
.LVL1090:
	movb	-36(%ebp), %dl
.LVL1091:
.L619:
.LBE8541:
.LBE8540:
	.loc 26 210 0
	movb	%dl, -18(%ebp,%ebx)
	incl	%ebx
.LVL1092:
	movb	$16, %al
.LVL1093:
.L618:
.LBE8539:
	.loc 26 204 0
	incl	%edi
.LVL1094:
	cmpl	$6, %edi
	jne	.L620
	movb	%al, -19(%ebp)
	.loc 26 213 0
	cmpl	$5, %ebx
	ja	.L621
	.loc 26 214 0
	movb	$0, -18(%ebp,%ebx)
	.loc 26 217 0
	testl	%ebx, %ebx
	je	.L622
.L621:
	.loc 26 218 0
	movb	-19(%ebp), %al
	testb	%al, %al
	jne	.L623
	.loc 26 219 0
	movb	-19(%ebp,%ebx), %al
.LBB8543:
.LBB8544:
	.loc 26 145 0
	cmpb	$99, %al
	ja	.L622
.LBB8545:
	.loc 26 147 0
	movzbl	%al, %eax
#APP
# 147 "src/usb-hid.c" 1
	movw %CS:KeyToScanCode.72626(%eax,%eax), %ax
# 0 "" 2
.LVL1095:
#NO_APP
.LBE8545:
	.loc 26 148 0
	testw	%ax, %ax
	je	.L622
	.loc 26 149 0
	movzwl	%ax, %eax
.LVL1096:
	call	prockeys.72633
.LVL1097:
	jmp	.L622
.LVL1098:
.L623:
.LBE8544:
.LBE8543:
	.loc 26 220 0
	cmpb	$-1, %al
	je	.L622
	.loc 26 221 0
	decl	%eax
	movb	%al, -19(%ebp)
.LVL1099:
.L622:
.LBB8546:
	.loc 26 225 0
	movl	-16(%ebp), %eax
.LVL1100:
#APP
# 225 "src/usb-hid.c" 1
	movw -30(%ebp), %ES
# 0 "" 2
#NO_APP
.LBB8547:
	movl	-20(%ebp), %edx
.LVL1101:
#APP
# 225 "src/usb-hid.c" 1
	movl %edx, %ES:290
# 0 "" 2
# 225 "src/usb-hid.c" 1
	movl %eax, %ES:294
# 0 "" 2
#NO_APP
.LBE8547:
.LBE8546:
	.loc 26 226 0
	addl	$24, %esp
	popl	%ebx
.LVL1102:
	popl	%esi
.LVL1103:
	popl	%edi
.LVL1104:
	leave
	ret
	.cfi_endproc
.LFE2279:
	.size	handle_key.72733, .-handle_key.72733
	.section	.text.handle_08,"ax",@progbits
.globl handle_08
	.type	handle_08, @function
handle_08:
.LFB1120:
	.loc 7 439 0
	.cfi_startproc
	pushl	%edi
	.cfi_def_cfa_offset 8
	pushl	%esi
	.cfi_def_cfa_offset 12
	pushl	%ebx
	.cfi_def_cfa_offset 16
	subl	$8, %esp
	.cfi_def_cfa_offset 24
.LBB8548:
.LBB8549:
	.loc 5 606 0
	movl	$64, %edx
#APP
# 606 "src/floppy.c" 1
	movw %dx, %ES
# 0 "" 2
#NO_APP
.LBB8550:
#APP
# 606 "src/floppy.c" 1
	movb %ES:64, %al
# 0 "" 2
.LVL1105:
#NO_APP
.LBE8550:
	.loc 5 607 0
	testb	%al, %al
	je	.L631
	.cfi_offset 3, -16
	.cfi_offset 6, -12
	.cfi_offset 7, -8
	.loc 5 608 0
	decl	%eax
.LVL1106:
.LBB8551:
	.loc 5 609 0
#APP
# 609 "src/floppy.c" 1
	movw %dx, %ES
# 0 "" 2
# 609 "src/floppy.c" 1
	movb %al, %ES:64
# 0 "" 2
#NO_APP
.LBE8551:
	.loc 5 610 0
	testb	%al, %al
	jne	.L631
.LBB8552:
.LBB8553:
	.loc 2 92 0
	movl	$1010, %edx
#APP
# 92 "src/ioport.h" 1
	inb %dx, %al
# 0 "" 2
.LVL1107:
#NO_APP
.LBE8553:
.LBE8552:
.LBB8554:
.LBB8555:
	.loc 2 82 0
	andl	$207, %eax
.LVL1108:
#APP
# 82 "src/ioport.h" 1
	outb %al, %dx
# 0 "" 2
.LVL1109:
#NO_APP
.L631:
.LBE8555:
.LBE8554:
.LBE8549:
.LBE8548:
	.loc 7 444 0
	movl	$64, %edx
#APP
# 444 "src/clock.c" 1
	movw %dx, %ES
# 0 "" 2
#NO_APP
.LBB8556:
#APP
# 444 "src/clock.c" 1
	movl %ES:108, %eax
# 0 "" 2
.LVL1110:
#NO_APP
.LBE8556:
	.loc 7 445 0
	incl	%eax
.LVL1111:
	.loc 7 447 0
	cmpl	$1573039, %eax
	jbe	.L632
.LBB8557:
	.loc 7 450 0
#APP
# 450 "src/clock.c" 1
	movw %dx, %ES
# 0 "" 2
#NO_APP
.LBB8558:
#APP
# 450 "src/clock.c" 1
	movb %ES:112, %al
# 0 "" 2
.LVL1112:
#NO_APP
.LBE8558:
	incl	%eax
.LVL1113:
#APP
# 450 "src/clock.c" 1
	movb %al, %ES:112
# 0 "" 2
#NO_APP
	xorl	%eax, %eax
.LVL1114:
.L632:
.LBE8557:
.LBB8559:
	.loc 7 453 0
	movl	$64, %edx
#APP
# 453 "src/clock.c" 1
	movw %dx, %ES
# 0 "" 2
# 453 "src/clock.c" 1
	movl %eax, %ES:108
# 0 "" 2
#NO_APP
.LBE8559:
.LBB8560:
.LBB8561:
.LBB8562:
	.loc 26 233 0
#APP
# 233 "src/usb-hid.c" 1
	movl %CS:keyboard_pipe, %esi
# 0 "" 2
.LVL1115:
#NO_APP
.LBE8562:
	.loc 26 234 0
	testl	%esi, %esi
	je	.L633
.L636:
.LBB8563:
	.loc 26 239 0
	movl	%esp, %edx
	movl	%esi, %eax
.LVL1116:
	call	usb_poll_intr.60867
	.loc 26 240 0
	testl	%eax, %eax
.LVL1117:
	jne	.L633
	.loc 26 242 0
	movl	%esp, %eax
.LVL1118:
	call	handle_key.72733
	jmp	.L636
.LVL1119:
.L633:
.LBE8563:
.LBE8561:
.LBE8560:
	.loc 7 459 0
	xorl	%eax, %eax
.LVL1120:
#APP
# 459 "src/clock.c" 1
	pushl %ebp
sti
stc
int $28
pushfl
popl %ecx
cli
cld
popl %ebp
# 0 "" 2
.LVL1121:
#NO_APP
.LBB8564:
.LBB8565:
.LBB8566:
	.loc 2 82 0
	movb	$32, %al
.LVL1122:
#APP
# 82 "src/ioport.h" 1
	outb %al, $32
# 0 "" 2
#NO_APP
.LBE8566:
.LBE8565:
.LBE8564:
	.loc 7 462 0
	popl	%edi
	.cfi_def_cfa_offset 20
	popl	%eax
	.cfi_def_cfa_offset 16
	popl	%ebx
	popl	%esi
	popl	%edi
	ret
	.cfi_endproc
.LFE1120:
	.size	handle_08, .-handle_08
	.section	.rodata.str1.1
.LC12:
	.string	"WARNING - Timeout at %s:%d!\n"
	.section	.text.await_not_bsy.20152,"ax",@progbits
	.type	await_not_bsy.20152, @function
await_not_bsy.20152:
.LFB665:
	.file 27 "src/ata.c"
	.loc 27 49 0
	.cfi_startproc
.LVL1123:
	pushl	%ebp
	.cfi_def_cfa_offset 8
	movl	%esp, %ebp
	.cfi_offset 5, -8
	.cfi_def_cfa_register 5
	pushl	%edi
	pushl	%esi
	pushl	%ebx
	subl	$16, %esp
	movl	%eax, %ebx
	.cfi_offset 3, -20
	.cfi_offset 6, -16
	.cfi_offset 7, -12
.LBB8567:
.LBB8568:
.LBB8569:
.LBB8570:
.LBB8571:
	.loc 7 135 0
#APP
# 135 "src/clock.c" 1
	movl %CS:cpu_khz, %ecx
# 0 "" 2
.LVL1124:
#NO_APP
.LBE8571:
.LBB8572:
.LBB8573:
	.loc 8 85 0
#APP
# 85 "src/util.h" 1
	rdtsc
# 0 "" 2
.LVL1125:
#NO_APP
	movl	%eax, -20(%ebp)
	movl	%edx, -16(%ebp)
.LBE8573:
.LBE8572:
	.loc 7 136 0
	movl	$32000, %esi
	movl	%ecx, %eax
	mull	%esi
	movl	%eax, -28(%ebp)
	movl	%edx, -24(%ebp)
	movl	-20(%ebp), %eax
	movl	-16(%ebp), %edx
	addl	%eax, -28(%ebp)
	adcl	%edx, -24(%ebp)
.LBE8570:
.LBE8569:
.LBB8574:
.LBB8575:
.LBB8576:
	.loc 2 92 0
	addl	$7, %ebx
.LVL1126:
.L642:
	movl	%ebx, %edx
#APP
# 92 "src/ioport.h" 1
	inb %dx, %al
# 0 "" 2
.LVL1127:
#NO_APP
.LBE8576:
.LBE8575:
	.loc 27 36 0
	testb	%al, %al
	js	.L638
	.loc 27 37 0
	movzbl	%al, %eax
.LVL1128:
	jmp	.L639
.LVL1129:
.L638:
.LBB8577:
.LBB8578:
.LBB8579:
	.loc 8 85 0
#APP
# 85 "src/util.h" 1
	rdtsc
# 0 "" 2
.LVL1130:
#NO_APP
	movl	%eax, -20(%ebp)
	movl	%edx, -16(%ebp)
.LBE8579:
.LBE8578:
.LBE8577:
	.loc 27 38 0
	movl	-28(%ebp), %eax
	movl	-24(%ebp), %edx
	subl	%eax, -20(%ebp)
	sbbl	%edx, -16(%ebp)
	cmpl	$0, -16(%ebp)
	jl	.L640
	jg	.L644
	cmpl	$0, -20(%ebp)
	jbe	.L640
.L644:
.LBB8580:
.LBB8581:
	.loc 3 508 0
	pushl	$39
	pushl	$__func__.20137
	pushl	$.LC12
	.cfi_escape 0x2e,0xc
	call	__dprintf.1654
.LVL1131:
	addl	$12, %esp
	orl	$-1, %eax
	jmp	.L639
.LVL1132:
.L640:
.LBE8581:
.LBE8580:
.LBB8582:
.LBB8583:
.LBB8584:
.LBB8585:
	.loc 6 72 0
#APP
# 72 "src/util.c" 1
	sti
nop
rep ; nop
cli
cld

# 0 "" 2
#NO_APP
	jmp	.L642
.L639:
.LBE8585:
.LBE8584:
.LBE8583:
.LBE8582:
.LBE8574:
.LBE8568:
.LBE8567:
	.loc 27 51 0
	leal	-12(%ebp), %esp
	popl	%ebx
	popl	%esi
	popl	%edi
	leave
	ret
	.cfi_endproc
.LFE665:
	.size	await_not_bsy.20152, .-await_not_bsy.20152
	.section	.text.ata_pio_transfer.20669,"ax",@progbits
	.type	ata_pio_transfer.20669, @function
ata_pio_transfer.20669:
.LFB675:
	.loc 27 298 0
	.cfi_startproc
.LVL1133:
	pushl	%ebp
	.cfi_def_cfa_offset 8
	pushl	%edi
	.cfi_def_cfa_offset 12
	pushl	%esi
	.cfi_def_cfa_offset 16
	pushl	%ebx
	.cfi_def_cfa_offset 20
	subl	$36, %esp
	.cfi_def_cfa_offset 56
	movl	%eax, %ebx
	.cfi_offset 3, -20
	.cfi_offset 6, -16
	.cfi_offset 7, -12
	.cfi_offset 5, -8
	movl	%edx, 20(%esp)
	movl	%ecx, 12(%esp)
.LBB8586:
	.loc 27 304 0
	movl	12(%eax), %eax
.LVL1134:
#APP
# 304 "src/ata.c" 1
	movl %CS:36(%eax), %eax
# 0 "" 2
.LVL1135:
#NO_APP
.LBE8586:
.LBB8587:
	.loc 27 305 0
#APP
# 305 "src/ata.c" 1
	movw %CS:-983040(%eax), %dx
# 0 "" 2
.LVL1136:
#NO_APP
	movw	%dx, 6(%esp)
.LBE8587:
.LBB8588:
	.loc 27 306 0
#APP
# 306 "src/ata.c" 1
	movw %CS:-983038(%eax), %cx
# 0 "" 2
.LVL1137:
#NO_APP
.LBE8588:
	.loc 27 307 0
	movzwl	16(%ebx), %ebp
.LVL1138:
	.loc 27 308 0
	movl	8(%ebx), %esi
	movl	%esi, (%esp)
.LBB8589:
.LBB8590:
	.loc 25 155 0
	movl	$2, %edx
	movl	12(%esp), %eax
.LVL1139:
	movl	%edx, %esi
	cltd
	idivl	%esi
	movzwl	%ax, %edi
	movl	%edi, 16(%esp)
	movl	$0, 8(%esp)
.LBE8590:
.LBE8589:
.LBB8594:
.LBB8595:
.LBB8596:
.LBB8597:
	.loc 2 92 0
	addl	$2, %ecx
.LVL1140:
	movw	%cx, 26(%esp)
.LBE8597:
.LBE8596:
	.loc 27 67 0
	movzwl	6(%esp), %eax
	movl	%eax, 28(%esp)
.LBE8595:
.LBE8594:
	.loc 27 336 0
	leal	-1(%ebp), %edx
	movl	%edx, 32(%esp)
.LVL1141:
.L652:
	.loc 27 311 0
	cmpl	$0, 20(%esp)
	je	.L646
.LBB8601:
.LBB8593:
	.loc 25 154 0
	movl	(%esp), %eax
	shrl	$4, %eax
#APP
# 154 "src/farptr.h" 1
	movw %ax, %ES
# 0 "" 2
#NO_APP
.LBB8591:
.LBB8592:
	.loc 2 124 0
	movl	(%esp), %esi
	andl	$15, %esi
	movl	16(%esp), %ecx
.LVL1142:
	movw	6(%esp), %dx
#APP
# 124 "src/ioport.h" 1
	rep outsw %es:(%esi), (%dx)
# 0 "" 2
.LVL1143:
#NO_APP
	jmp	.L647
.LVL1144:
.L646:
.LBE8592:
.LBE8591:
.LBE8593:
.LBE8601:
.LBB8602:
.LBB8603:
	.loc 25 142 0
	movl	(%esp), %eax
	shrl	$4, %eax
#APP
# 142 "src/farptr.h" 1
	movw %ax, %ES
# 0 "" 2
#NO_APP
.LBB8604:
.LBB8605:
	.loc 2 111 0
	movl	(%esp), %edi
.LVL1145:
	andl	$15, %edi
	movl	16(%esp), %ecx
.LVL1146:
	movw	6(%esp), %dx
#APP
# 111 "src/ioport.h" 1
	rep insw (%dx), %es:(%edi)
# 0 "" 2
.LVL1147:
#NO_APP
.L647:
.LBE8605:
.LBE8604:
.LBE8603:
.LBE8602:
.LBB8606:
.LBB8600:
.LBB8599:
.LBB8598:
	.loc 2 92 0
	movw	26(%esp), %dx
#APP
# 92 "src/ioport.h" 1
	inb %dx, %al
# 0 "" 2
.LVL1148:
#NO_APP
.LBE8598:
.LBE8599:
	.loc 27 67 0
	movl	28(%esp), %eax
.LVL1149:
	call	await_not_bsy.20152
.LVL1150:
.LBE8600:
.LBE8606:
	.loc 27 329 0
	testl	%eax, %eax
.LVL1151:
	jns	.L648
	.loc 27 331 0
	subw	%bp, 16(%ebx)
.LVL1152:
	.loc 27 332 0
	jmp	.L649
.LVL1153:
.L648:
	.loc 27 335 0
	decl	%ebp
.LVL1154:
	.loc 27 336 0
	movl	8(%esp), %edx
	cmpl	%edx, 32(%esp)
	je	.L650
	incl	%edx
	movl	%edx, 8(%esp)
	.loc 27 339 0
	andl	$137, %eax
.LVL1155:
	cmpl	$8, %eax
	jne	.L651
	.loc 27 297 0
	movl	12(%esp), %esi
.LVL1156:
	addl	%esi, (%esp)
	jmp	.L652
.LVL1157:
.L651:
	.loc 27 342 0
	subw	%bp, 16(%ebx)
.LVL1158:
	movl	$-6, %eax
.LVL1159:
	.loc 27 343 0
	jmp	.L649
.LVL1160:
.L650:
	.loc 27 347 0
	andl	$169, %eax
.LVL1161:
	.loc 27 349 0
	cmpl	$0, 20(%esp)
	jne	.L653
	.loc 27 350 0
	andl	$-33, %eax
.L653:
	.loc 27 351 0
	testl	%eax, %eax
	je	.L649
	movl	$-7, %eax
.L649:
.LVL1162:
	.loc 27 357 0
	addl	$36, %esp
	popl	%ebx
.LVL1163:
	popl	%esi
.LVL1164:
	popl	%edi
.LVL1165:
	popl	%ebp
.LVL1166:
	ret
	.cfi_endproc
.LFE675:
	.size	ata_pio_transfer.20669, .-ata_pio_transfer.20669
	.section	.text.ndelay_await_not_bsy.20173,"ax",@progbits
	.type	ndelay_await_not_bsy.20173, @function
ndelay_await_not_bsy.20173:
.LFB668:
	.loc 27 73 0
	.cfi_startproc
.LVL1167:
	pushl	%ebp
	.cfi_def_cfa_offset 8
	movl	%esp, %ebp
	.cfi_offset 5, -8
	.cfi_def_cfa_register 5
	pushl	%edi
	pushl	%esi
	pushl	%ebx
	subl	$8, %esp
	movl	%eax, %ecx
.LBB8607:
.LBB8608:
	.loc 7 112 0
#APP
# 112 "src/clock.c" 1
	movl %CS:cpu_khz, %ebx
# 0 "" 2
.LVL1168:
#NO_APP
.LBE8608:
.LBB8609:
.LBB8610:
.LBB8611:
.LBB8612:
	.loc 8 85 0
#APP
# 85 "src/util.h" 1
	rdtsc
# 0 "" 2
.LVL1169:
#NO_APP
	movl	%eax, -20(%ebp)
	movl	%edx, -16(%ebp)
.LBE8612:
.LBE8611:
	.loc 7 97 0
	imull	$400, %ebx, %eax
	movl	$1000000, %edx
	movl	%edx, %ebx
	.cfi_offset 3, -20
	.cfi_offset 6, -16
	.cfi_offset 7, -12
.LVL1170:
	xorl	%edx, %edx
	divl	%ebx
	movl	%eax, %ebx
.LVL1171:
	xorl	%esi, %esi
.LVL1172:
	addl	-20(%ebp), %ebx
.LVL1173:
	adcl	-16(%ebp), %esi
.LVL1174:
	jmp	.L656
.L657:
.LBB8613:
.LBB8614:
	.loc 8 36 0
#APP
# 36 "src/util.h" 1
	rep ; nop
# 0 "" 2
#NO_APP
.L656:
.LBE8614:
.LBE8613:
.LBB8615:
.LBB8616:
.LBB8617:
	.loc 8 85 0
#APP
# 85 "src/util.h" 1
	rdtsc
# 0 "" 2
#NO_APP
	movl	%eax, -20(%ebp)
	movl	%edx, -16(%ebp)
.LBE8617:
.LBE8616:
.LBE8615:
	.loc 7 98 0
	subl	%ebx, -20(%ebp)
	sbbl	%esi, -16(%ebp)
	cmpl	$0, -16(%ebp)
	jl	.L657
	jg	.L660
	cmpl	$0, -20(%ebp)
	jbe	.L657
.L660:
.LBE8610:
.LBE8609:
.LBE8607:
	.loc 27 75 0
	movzwl	%cx, %eax
.LVL1175:
	.loc 27 76 0
	popl	%edx
	popl	%ecx
	popl	%ebx
.LVL1176:
	popl	%esi
.LVL1177:
	popl	%edi
	leave
	.loc 27 75 0
	jmp	await_not_bsy.20152
.LVL1178:
	.cfi_endproc
.LFE668:
	.size	ndelay_await_not_bsy.20173, .-ndelay_await_not_bsy.20173
	.section	.text.send_cmd.20413,"ax",@progbits
	.type	send_cmd.20413, @function
send_cmd.20413:
.LFB672:
	.loc 27 193 0
	.cfi_startproc
.LVL1179:
	pushl	%ebp
	.cfi_def_cfa_offset 8
	pushl	%edi
	.cfi_def_cfa_offset 12
	pushl	%esi
	.cfi_def_cfa_offset 16
	pushl	%ebx
	.cfi_def_cfa_offset 20
	subl	$4, %esp
	.cfi_def_cfa_offset 24
	movl	%edx, %esi
	.cfi_offset 3, -20
	.cfi_offset 6, -16
	.cfi_offset 7, -12
	.cfi_offset 5, -8
.LBB8618:
	.loc 27 194 0
#APP
# 194 "src/ata.c" 1
	movl %CS:36(%eax), %edx
# 0 "" 2
.LVL1180:
#NO_APP
.LBE8618:
.LBB8619:
	.loc 27 195 0
#APP
# 195 "src/ata.c" 1
	movb %CS:40(%eax), %cl
# 0 "" 2
#NO_APP
	movb	%cl, 3(%esp)
.LBE8619:
.LBB8620:
	.loc 27 196 0
#APP
# 196 "src/ata.c" 1
	movw %CS:-983040(%edx), %bx
# 0 "" 2
.LVL1181:
#NO_APP
.LBE8620:
	.loc 27 199 0
	movzwl	%bx, %ebp
	movl	%ebp, %eax
.LVL1182:
	call	await_not_bsy.20152
.LVL1183:
	.loc 27 200 0
	testl	%eax, %eax
.LVL1184:
	js	.L662
	.loc 27 203 0
	movb	5(%esi), %al
.LVL1185:
	cmpb	$1, 3(%esp)
	sbbl	%edi, %edi
	andl	$-16, %edi
	subl	$80, %edi
.LVL1186:
	andl	$79, %eax
	orl	%eax, %edi
.LVL1187:
	.loc 27 204 0
	leal	6(%ebx), %edx
.LBB8621:
.LBB8622:
	.loc 2 92 0
#APP
# 92 "src/ioport.h" 1
	inb %dx, %al
# 0 "" 2
#NO_APP
	movb	%al, %cl
.LBE8622:
.LBE8621:
.LBB8623:
.LBB8624:
	.loc 2 82 0
	movl	%edi, %eax
#APP
# 82 "src/ioport.h" 1
	outb %al, %dx
# 0 "" 2
#NO_APP
.LBE8624:
.LBE8623:
	.loc 27 206 0
	xorl	%edi, %ecx
	andb	$16, %cl
	je	.L665
	.loc 27 208 0
	movl	%ebp, %eax
	call	ndelay_await_not_bsy.20173
	.loc 27 209 0
	testl	%eax, %eax
.LVL1188:
	js	.L662
.L665:
	.loc 27 214 0
	movb	6(%esi), %cl
	movl	%ecx, %eax
.LVL1189:
	andl	$238, %eax
	cmpl	$36, %eax
	jne	.L666
.LBB8625:
.LBB8626:
	.loc 2 82 0
	movb	7(%esi), %al
	leal	1(%ebx), %edx
#APP
# 82 "src/ioport.h" 1
	outb %al, %dx
# 0 "" 2
#NO_APP
.LBE8626:
.LBE8625:
.LBB8627:
.LBB8628:
	movb	8(%esi), %al
	leal	2(%ebx), %edx
#APP
# 82 "src/ioport.h" 1
	outb %al, %dx
# 0 "" 2
#NO_APP
.LBE8628:
.LBE8627:
.LBB8629:
.LBB8630:
	movb	9(%esi), %al
	leal	3(%ebx), %edx
#APP
# 82 "src/ioport.h" 1
	outb %al, %dx
# 0 "" 2
#NO_APP
.LBE8630:
.LBE8629:
.LBB8631:
.LBB8632:
	movb	10(%esi), %al
	leal	4(%ebx), %edx
#APP
# 82 "src/ioport.h" 1
	outb %al, %dx
# 0 "" 2
#NO_APP
.LBE8632:
.LBE8631:
.LBB8633:
.LBB8634:
	movb	11(%esi), %al
	leal	5(%ebx), %edx
#APP
# 82 "src/ioport.h" 1
	outb %al, %dx
# 0 "" 2
#NO_APP
.L666:
.LBE8634:
.LBE8633:
.LBB8635:
.LBB8636:
	movb	(%esi), %al
	leal	1(%ebx), %edx
#APP
# 82 "src/ioport.h" 1
	outb %al, %dx
# 0 "" 2
#NO_APP
.LBE8636:
.LBE8635:
.LBB8637:
.LBB8638:
	movb	1(%esi), %al
	leal	2(%ebx), %edx
#APP
# 82 "src/ioport.h" 1
	outb %al, %dx
# 0 "" 2
#NO_APP
.LBE8638:
.LBE8637:
.LBB8639:
.LBB8640:
	movb	2(%esi), %al
	leal	3(%ebx), %edx
#APP
# 82 "src/ioport.h" 1
	outb %al, %dx
# 0 "" 2
#NO_APP
.LBE8640:
.LBE8639:
.LBB8641:
.LBB8642:
	movb	3(%esi), %al
	leal	4(%ebx), %edx
#APP
# 82 "src/ioport.h" 1
	outb %al, %dx
# 0 "" 2
#NO_APP
.LBE8642:
.LBE8641:
.LBB8643:
.LBB8644:
	movb	4(%esi), %al
	leal	5(%ebx), %edx
#APP
# 82 "src/ioport.h" 1
	outb %al, %dx
# 0 "" 2
#NO_APP
.LBE8644:
.LBE8643:
.LBB8645:
.LBB8646:
	leal	7(%ebx), %edx
	movb	%cl, %al
#APP
# 82 "src/ioport.h" 1
	outb %al, %dx
# 0 "" 2
#NO_APP
	xorl	%eax, %eax
.LVL1190:
.L662:
.LVL1191:
.LBE8646:
.LBE8645:
	.loc 27 229 0
	popl	%ebx
	.cfi_def_cfa_offset 20
.LVL1192:
	popl	%ebx
	popl	%esi
.LVL1193:
	popl	%edi
.LVL1194:
	popl	%ebp
	ret
	.cfi_endproc
.LFE672:
	.size	send_cmd.20413, .-send_cmd.20413
	.section	.text.ata_readwrite.21200,"ax",@progbits
	.type	ata_readwrite.21200, @function
ata_readwrite.21200:
.LFB680:
	.loc 27 533 0
	.cfi_startproc
.LVL1195:
	pushl	%edi
	.cfi_def_cfa_offset 8
	leal	8(%esp), %edi
	.cfi_offset 7, -8
	.cfi_def_cfa 7, 0
	andl	$-16, %esp
	pushl	-4(%edi)
	pushl	%ebp
	movl	%esp, %ebp
	.cfi_escape 0x10,0x5,0x2,0x75,0x0
	pushl	%edi
	.cfi_escape 0xf,0x3,0x75,0x7c,0x6
	pushl	%esi
	pushl	%ebx
	subl	$60, %esp
	movl	%eax, %ebx
	.cfi_escape 0x10,0x3,0x2,0x75,0x74
	.cfi_escape 0x10,0x6,0x2,0x75,0x78
	movl	%edx, -44(%ebp)
	.loc 27 534 0
	movl	(%eax), %eax
.LVL1196:
	movl	4(%ebx), %edx
.LVL1197:
	movl	$12, %ecx
.LVL1198:
.LBB8647:
.LBB8648:
	.loc 6 178 0
	leal	-36(%ebp), %esi
.L669:
	decl	%ecx
.LVL1199:
	movb	$0, (%esi,%ecx)
	.loc 6 177 0
	testl	%ecx, %ecx
	jne	.L669
.LBE8648:
.LBE8647:
	.loc 27 541 0
	movl	16(%ebx), %ecx
.LVL1200:
	movw	%cx, -38(%ebp)
	cmpw	$255, %cx
	ja	.L670
	movzwl	%cx, %esi
	xorl	%edi, %edi
	addl	%eax, %esi
	adcl	%edx, %edi
	cmpl	$0, %edi
	ja	.L670
	cmpl	$268435455, %esi
	jbe	.L671
.L670:
	.loc 27 549 0
	cmpl	$1, -44(%ebp)
	sbbl	%ecx, %ecx
	andl	$-16, %ecx
	addl	$52, %ecx
	movb	%cl, -72(%ebp)
	.loc 27 542 0
	movw	-38(%ebp), %si
	shrw	$8, %si
	movl	%esi, %ecx
	movb	%cl, -28(%ebp)
	.loc 27 543 0
	movl	%eax, %esi
	movl	%edx, %edi
	shrdl	$24, %edi, %esi
	shrl	$24, %edi
	movl	%esi, %ecx
	movb	%cl, -27(%ebp)
	.loc 27 544 0
	movl	%edx, %esi
	movb	%dl, -26(%ebp)
.LVL1201:
	.loc 27 545 0
	shrl	$8, %esi
	movl	%esi, %ecx
	movb	%cl, -25(%ebp)
	.loc 27 549 0
	movb	-72(%ebp), %cl
	movb	%cl, -30(%ebp)
	movl	%eax, %esi
.LVL1202:
	andl	$16777215, %esi
	xorl	%ecx, %ecx
.LVL1203:
	movl	%esi, %eax
	movl	%ecx, %edx
	jmp	.L675
.LVL1204:
.L671:
	.loc 27 556 0
	cmpl	$1, -44(%ebp)
	sbbl	%ecx, %ecx
	andl	$-16, %ecx
	addl	$48, %ecx
	movb	%cl, -30(%ebp)
.LVL1205:
.L675:
	.loc 27 563 0
	movb	-38(%ebp), %cl
	movb	%cl, -35(%ebp)
	.loc 27 564 0
	movb	%al, -34(%ebp)
	.loc 27 565 0
	movl	%eax, %esi
	movl	%edx, %edi
	shrdl	$8, %edi, %esi
	shrl	$8, %edi
	movl	%esi, %ecx
	movb	%cl, -33(%ebp)
	.loc 27 566 0
	movl	%eax, %esi
	movl	%edx, %edi
	shrdl	$16, %edi, %esi
	shrl	$16, %edi
	movl	%esi, %ecx
	movb	%cl, -32(%ebp)
	.loc 27 567 0
	shrdl	$24, %edx, %eax
.LVL1206:
	shrl	$24, %edx
	andl	$15, %eax
	orl	$64, %eax
	movb	%al, -31(%ebp)
.LBB8649:
.LBB8650:
.LBB8660:
	.loc 27 493 0
	movl	12(%ebx), %ecx
.LVL1207:
.LBE8660:
.LBB8659:
	.loc 27 495 0
#APP
# 495 "src/ata.c" 1
	movl %CS:36(%ecx), %eax
# 0 "" 2
.LVL1208:
#NO_APP
.LBE8659:
.LBB8658:
	.loc 27 496 0
#APP
# 496 "src/ata.c" 1
	movw %CS:-983040(%eax), %si
# 0 "" 2
.LVL1209:
#NO_APP
.LBE8658:
.LBB8657:
	.loc 27 497 0
#APP
# 497 "src/ata.c" 1
	movw %CS:-983038(%eax), %di
# 0 "" 2
.LVL1210:
#NO_APP
.LBE8657:
	.loc 27 500 0
	addl	$2, %edi
.LVL1211:
.LBB8655:
.LBB8656:
	.loc 2 82 0
	movb	$10, %al
.LVL1212:
	movl	%edi, %edx
#APP
# 82 "src/ioport.h" 1
	outb %al, %dx
# 0 "" 2
#NO_APP
.LBE8656:
.LBE8655:
	.loc 27 502 0
	leal	-36(%ebp), %edx
	movl	%ecx, %eax
	call	send_cmd.20413
.LVL1213:
	movl	%eax, %ecx
.LVL1214:
	.loc 27 503 0
	testl	%eax, %eax
	jne	.L678
.LVL1215:
.LBB8653:
.LBB8654:
	.loc 27 235 0
	movzwl	%si, %eax
.LVL1216:
	call	ndelay_await_not_bsy.20173
.LVL1217:
	movl	%eax, %ecx
.LVL1218:
	.loc 27 236 0
	testl	%eax, %eax
	js	.L678
.LVL1219:
	.loc 27 239 0
	testb	$1, %al
	je	.L679
	movl	$-4, %ecx
.LVL1220:
	jmp	.L678
.LVL1221:
.L679:
	.loc 27 244 0
	andb	$8, %cl
.LVL1222:
	jne	.L680
	movl	$-5, %ecx
.LVL1223:
.L678:
.LBE8654:
.LBE8653:
.LBB8651:
.LBB8652:
	.loc 2 82 0
	movb	$8, %al
	movl	%edi, %edx
#APP
# 82 "src/ioport.h" 1
	outb %al, %dx
# 0 "" 2
#NO_APP
.LBE8652:
.LBE8651:
.LBE8650:
.LBE8649:
	.loc 27 574 0
	cmpl	$1, %ecx
	sbbl	%eax, %eax
	notl	%eax
	andl	$12, %eax
	.loc 27 577 0
	addl	$60, %esp
	popl	%ebx
.LVL1224:
	popl	%esi
.LVL1225:
	popl	%edi
	leave
	leal	-8(%edi), %esp
	popl	%edi
	ret
.LVL1226:
.L680:
.LBB8662:
.LBB8661:
	.loc 27 508 0
	movl	$512, %ecx
.LVL1227:
	movl	-44(%ebp), %edx
	movl	%ebx, %eax
	call	ata_pio_transfer.20669
	movl	%eax, %ecx
.LVL1228:
	jmp	.L678
.LBE8661:
.LBE8662:
	.cfi_endproc
.LFE680:
	.size	ata_readwrite.21200, .-ata_readwrite.21200
	.section	.text.process_ata_misc_op.20381,"ax",@progbits
	.type	process_ata_misc_op.20381, @function
process_ata_misc_op.20381:
.LFB671:
	.loc 27 147 0
	.cfi_startproc
.LVL1229:
	pushl	%ebp
	.cfi_def_cfa_offset 8
	movl	%esp, %ebp
	.cfi_offset 5, -8
	.cfi_def_cfa_register 5
	pushl	%edi
	pushl	%esi
	pushl	%ebx
	subl	$24, %esp
.LBB8740:
	.loc 27 151 0
	movl	12(%eax), %esi
	.cfi_offset 3, -20
	.cfi_offset 6, -16
	.cfi_offset 7, -12
.LVL1230:
.LBE8740:
	.loc 27 153 0
	movb	18(%eax), %dl
	cmpb	$5, %dl
	ja	.L690
	cmpb	$4, %dl
	jae	.L688
	testb	%dl, %dl
	je	.L687
	jmp	.L686
.L690:
	cmpb	$7, %dl
	je	.L688
	cmpb	$16, %dl
	jne	.L686
	jmp	.L713
.L687:
.LBB8741:
.LBB8742:
.LBB8743:
	.loc 27 82 0
#APP
# 82 "src/ata.c" 1
	movl %CS:36(%esi), %eax
# 0 "" 2
.LVL1231:
#NO_APP
.LBE8743:
.LBB8744:
	.loc 27 83 0
#APP
# 83 "src/ata.c" 1
	movb %CS:40(%esi), %dl
# 0 "" 2
#NO_APP
	movl	%edx, %edi
.LVL1232:
.LBE8744:
.LBB8745:
	.loc 27 84 0
#APP
# 84 "src/ata.c" 1
	movw %CS:-983040(%eax), %bx
# 0 "" 2
.LVL1233:
#NO_APP
.LBE8745:
.LBB8746:
	.loc 27 85 0
#APP
# 85 "src/ata.c" 1
	movw %CS:-983038(%eax), %ax
# 0 "" 2
.LVL1234:
#NO_APP
.LBE8746:
	.loc 27 89 0
	addl	$2, %eax
.LVL1235:
	movw	%ax, -22(%ebp)
.LBB8747:
.LBB8748:
	.loc 2 82 0
	movb	$14, %al
	movw	-22(%ebp), %dx
#APP
# 82 "src/ioport.h" 1
	outb %al, %dx
# 0 "" 2
#NO_APP
.LBE8748:
.LBE8747:
	.loc 27 90 0
	movl	$5, %eax
	call	udelay.1730
.LBB8749:
.LBB8750:
	.loc 2 82 0
	movb	$10, %al
	movw	-22(%ebp), %dx
#APP
# 82 "src/ioport.h" 1
	outb %al, %dx
# 0 "" 2
#NO_APP
.LBE8750:
.LBE8749:
.LBB8751:
.LBB8752:
	.loc 7 128 0
#APP
# 128 "src/clock.c" 1
	movl %CS:cpu_khz, %ecx
# 0 "" 2
.LVL1236:
#NO_APP
.LBE8752:
.LBB8753:
.LBB8754:
.LBB8755:
.LBB8756:
	.loc 8 85 0
#APP
# 85 "src/util.h" 1
	rdtsc
# 0 "" 2
.LVL1237:
#NO_APP
.LBE8756:
.LBE8755:
	.loc 7 106 0
	sall	%ecx
.LVL1238:
	movl	%ecx, -20(%ebp)
	movl	$0, -16(%ebp)
	addl	%eax, -20(%ebp)
	adcl	%edx, -16(%ebp)
.LVL1239:
	jmp	.L691
.LVL1240:
.L692:
.LBB8757:
.LBB8758:
.LBB8759:
.LBB8760:
	.loc 6 72 0
#APP
# 72 "src/util.c" 1
	sti
nop
rep ; nop
cli
cld

# 0 "" 2
.LVL1241:
#NO_APP
.L691:
.LBE8760:
.LBE8759:
.LBE8758:
.LBE8757:
.LBB8761:
.LBB8762:
.LBB8763:
	.loc 8 85 0
#APP
# 85 "src/util.h" 1
	rdtsc
# 0 "" 2
.LVL1242:
#NO_APP
.LBE8763:
.LBE8762:
.LBE8761:
	.loc 7 107 0
	subl	-20(%ebp), %eax
	sbbl	-16(%ebp), %edx
.LVL1243:
	cmpl	$0, %edx
	jl	.L692
	jg	.L704
	cmpl	$0, %eax
	jbe	.L692
.L704:
.LBE8754:
.LBE8753:
.LBE8751:
	.loc 27 95 0
	movzwl	%bx, %eax
	movl	%eax, -28(%ebp)
	call	await_not_bsy.20152
	.loc 27 96 0
	testl	%eax, %eax
.LVL1244:
	js	.L694
	.loc 27 98 0
	movl	%edi, %edx
	testb	%dl, %dl
	je	.L695
.LBB8764:
.LBB8765:
.LBB8766:
.LBB8767:
	.loc 7 135 0
#APP
# 135 "src/clock.c" 1
	movl %CS:cpu_khz, %edi
# 0 "" 2
.LVL1245:
#NO_APP
.LBE8767:
.LBB8768:
.LBB8769:
	.loc 8 85 0
#APP
# 85 "src/util.h" 1
	rdtsc
# 0 "" 2
.LVL1246:
#NO_APP
	movl	%eax, -36(%ebp)
	movl	%edx, -32(%ebp)
.LBE8769:
.LBE8768:
	.loc 7 136 0
	movl	$32000, %ecx
	movl	%edi, %eax
	mull	%ecx
	movl	%eax, -20(%ebp)
	movl	%edx, -16(%ebp)
	movl	-36(%ebp), %eax
	movl	-32(%ebp), %edx
	addl	%eax, -20(%ebp)
	adcl	%edx, -16(%ebp)
.LBE8766:
.LBE8765:
	.loc 27 102 0
	leal	6(%ebx), %edi
.LVL1247:
.L709:
.LBB8770:
.LBB8771:
	.loc 2 82 0
	movb	$-80, %al
	movl	%edi, %edx
#APP
# 82 "src/ioport.h" 1
	outb %al, %dx
# 0 "" 2
#NO_APP
.LBE8771:
.LBE8770:
	.loc 27 103 0
	movl	-28(%ebp), %eax
	call	ndelay_await_not_bsy.20173
	.loc 27 104 0
	testl	%eax, %eax
.LVL1248:
	js	.L694
.LBB8772:
.LBB8773:
	.loc 2 92 0
	movl	%edi, %edx
#APP
# 92 "src/ioport.h" 1
	inb %dx, %al
# 0 "" 2
.LVL1249:
#NO_APP
.LBE8773:
.LBE8772:
	.loc 27 106 0
	cmpb	$-80, %al
	je	.L696
.LBB8774:
.LBB8775:
.LBB8776:
	.loc 8 85 0
#APP
# 85 "src/util.h" 1
	rdtsc
# 0 "" 2
.LVL1250:
#NO_APP
.LBE8776:
.LBE8775:
.LBE8774:
	.loc 27 109 0
	subl	-20(%ebp), %eax
	sbbl	-16(%ebp), %edx
	cmpl	$0, %edx
	jl	.L709
	jg	.L705
	cmpl	$0, %eax
	jbe	.L709
.L705:
.LBB8777:
.LBB8778:
	.loc 3 508 0
	pushl	$110
	pushl	$__func__.20205
	jmp	.L711
.LVL1251:
.L695:
.LBE8778:
.LBE8777:
.LBE8764:
.LBB8779:
.LBB8780:
	.loc 2 82 0
	leal	6(%ebx), %edx
	movb	$-96, %al
.LVL1252:
#APP
# 82 "src/ioport.h" 1
	outb %al, %dx
# 0 "" 2
.LVL1253:
#NO_APP
.L696:
.LBE8780:
.LBE8779:
.LBB8781:
	.loc 27 120 0
#APP
# 120 "src/ata.c" 1
	movb %CS:(%esi), %al
# 0 "" 2
.LVL1254:
#NO_APP
.LBE8781:
	.loc 27 121 0
	cmpb	$2, %al
	jne	.L694
.LBB8782:
.LBB8783:
.LBB8784:
.LBB8785:
.LBB8786:
.LBB8787:
	.loc 7 135 0
#APP
# 135 "src/clock.c" 1
	movl %CS:cpu_khz, %esi
# 0 "" 2
.LVL1255:
#NO_APP
.LBE8787:
.LBB8788:
.LBB8789:
	.loc 8 85 0
#APP
# 85 "src/util.h" 1
	rdtsc
# 0 "" 2
.LVL1256:
#NO_APP
	movl	%eax, -20(%ebp)
	movl	%edx, -16(%ebp)
.LBE8789:
.LBE8788:
	.loc 7 136 0
	movl	$32000, %ecx
	movl	%esi, %eax
	mull	%ecx
	movl	%eax, %esi
.LVL1257:
	movl	%edx, %edi
.LVL1258:
	addl	-20(%ebp), %esi
.LVL1259:
	adcl	-16(%ebp), %edi
.LVL1260:
.LBE8786:
.LBE8785:
.LBB8790:
.LBB8791:
.LBB8792:
	.loc 2 92 0
	leal	7(%ebx), %edx
	movl	%edx, %ecx
.L701:
	movl	%ecx, %edx
#APP
# 92 "src/ioport.h" 1
	inb %dx, %al
# 0 "" 2
.LVL1261:
#NO_APP
.LBE8792:
.LBE8791:
	.loc 27 36 0
	testb	$64, %al
	jne	.L694
.LBB8793:
.LBB8794:
.LBB8795:
	.loc 8 85 0
#APP
# 85 "src/util.h" 1
	rdtsc
# 0 "" 2
.LVL1262:
#NO_APP
	movl	%eax, -20(%ebp)
	movl	%edx, -16(%ebp)
.LBE8795:
.LBE8794:
.LBE8793:
	.loc 27 38 0
	subl	%esi, -20(%ebp)
	sbbl	%edi, -16(%ebp)
	cmpl	$0, -16(%ebp)
	jl	.L699
	jg	.L706
	cmpl	$0, -20(%ebp)
	jbe	.L699
.L706:
.LBB8796:
.LBB8797:
	.loc 3 508 0
	pushl	$39
	pushl	$__func__.20137
.LVL1263:
.L711:
	pushl	$.LC12
	.cfi_escape 0x2e,0xc
	call	__dprintf.1654
	addl	$12, %esp
	jmp	.L694
.LVL1264:
.L699:
.LBE8797:
.LBE8796:
.LBB8798:
.LBB8799:
.LBB8800:
.LBB8801:
	.loc 6 72 0
#APP
# 72 "src/util.c" 1
	sti
nop
rep ; nop
cli
cld

# 0 "" 2
#NO_APP
	jmp	.L701
.LVL1265:
.L694:
.LBE8801:
.LBE8800:
.LBE8799:
.LBE8798:
.LBE8790:
.LBE8784:
.LBE8783:
.LBE8782:
.LBB8802:
.LBB8803:
	.loc 2 82 0
	movb	$8, %al
.LVL1266:
	movw	-22(%ebp), %dx
#APP
# 82 "src/ioport.h" 1
	outb %al, %dx
# 0 "" 2
#NO_APP
	jmp	.L688
.LVL1267:
.L713:
.LBE8803:
.LBE8802:
.LBE8742:
.LBE8741:
.LBB8804:
.LBB8805:
.LBB8806:
	.loc 27 136 0
#APP
# 136 "src/ata.c" 1
	movl %CS:36(%esi), %eax
# 0 "" 2
.LVL1268:
#NO_APP
.LBE8806:
.LBB8807:
	.loc 27 137 0
#APP
# 137 "src/ata.c" 1
	movw %CS:-983040(%eax), %dx
# 0 "" 2
.LVL1269:
#NO_APP
.LBE8807:
.LBB8808:
.LBB8809:
	.loc 2 92 0
	addl	$7, %edx
.LVL1270:
#APP
# 92 "src/ioport.h" 1
	inb %dx, %al
# 0 "" 2
.LVL1271:
#NO_APP
.LBE8809:
.LBE8808:
	.loc 27 139 0
	movl	%eax, %edx
.LVL1272:
	andl	$192, %edx
	movl	$170, %eax
	cmpl	$64, %edx
	jne	.L702
	jmp	.L688
.LVL1273:
.L686:
.LBE8805:
.LBE8804:
	.loc 27 164 0
	movw	$0, 16(%eax)
	movl	$1, %eax
.LVL1274:
	.loc 27 165 0
	jmp	.L702
.LVL1275:
.L688:
	xorl	%eax, %eax
.LVL1276:
.L702:
	.loc 27 167 0
	leal	-12(%ebp), %esp
	popl	%ebx
.LVL1277:
	popl	%esi
.LVL1278:
	popl	%edi
.LVL1279:
	leave
	ret
	.cfi_endproc
.LFE671:
	.size	process_ata_misc_op.20381, .-process_ata_misc_op.20381
	.section	.text.i8042_wait_write.42503,"ax",@progbits
	.type	i8042_wait_write.42503, @function
i8042_wait_write.42503:
.LFB1330:
	.file 28 "src/ps2port.c"
	.loc 28 41 0
	.cfi_startproc
	pushl	%ebx
	.cfi_def_cfa_offset 8
	.loc 28 41 0
	xorl	%ebx, %ebx
	.cfi_offset 3, -8
.LVL1280:
.L717:
.LBB8810:
.LBB8811:
.LBB8812:
	.loc 2 92 0
#APP
# 92 "src/ioport.h" 1
	inb $100, %al
# 0 "" 2
.LVL1281:
#NO_APP
.LBE8812:
.LBE8811:
	.loc 28 46 0
	testb	$2, %al
	jne	.L715
	xorl	%eax, %eax
.LVL1282:
	jmp	.L716
.LVL1283:
.L715:
	.loc 28 48 0
	movl	$50, %eax
.LVL1284:
	call	udelay.1730
.LBE8810:
	.loc 28 44 0
	incl	%ebx
	cmpl	$10000, %ebx
	jne	.L717
.LBB8813:
.LBB8814:
	.loc 3 508 0
	pushl	$50
	.cfi_def_cfa_offset 12
	pushl	$__func__.42510
	.cfi_def_cfa_offset 16
	pushl	$.LC12
	.cfi_def_cfa_offset 20
	.cfi_escape 0x2e,0xc
	call	__dprintf.1654
	addl	$12, %esp
	.cfi_def_cfa_offset 8
	orl	$-1, %eax
.L716:
.LBE8814:
.LBE8813:
	.loc 28 52 0
	popl	%ebx
.LVL1285:
	ret
	.cfi_endproc
.LFE1330:
	.size	i8042_wait_write.42503, .-i8042_wait_write.42503
	.section	.text.i8042_command.23898,"ax",@progbits
	.type	i8042_command.23898, @function
i8042_command.23898:
.LFB1333:
	.loc 28 107 0
	.cfi_startproc
.LVL1286:
	pushl	%ebp
	.cfi_def_cfa_offset 8
	pushl	%edi
	.cfi_def_cfa_offset 12
	pushl	%esi
	.cfi_def_cfa_offset 16
	pushl	%ebx
	.cfi_def_cfa_offset 20
	subl	$8, %esp
	.cfi_def_cfa_offset 28
	movl	%eax, %ebx
	.cfi_offset 3, -20
	.cfi_offset 6, -16
	.cfi_offset 7, -12
	.cfi_offset 5, -8
	movl	%edx, %ebp
.LBB8815:
.LBB8816:
	.loc 28 75 0
	movl	%eax, %esi
.LVL1287:
	sarl	$8, %esi
	andl	$15, %esi
	.loc 28 76 0
	sarl	$12, %eax
.LVL1288:
	andl	$15, %eax
	movl	%eax, 4(%esp)
	.loc 28 79 0
	call	i8042_wait_write.42503
.LVL1289:
	movl	%eax, %edi
.LVL1290:
	.loc 28 80 0
	testl	%eax, %eax
	jne	.L721
.LVL1291:
.LBB8817:
.LBB8818:
	.loc 2 82 0
	movb	%bl, %al
.LVL1292:
#APP
# 82 "src/ioport.h" 1
	outb %al, $100
# 0 "" 2
#NO_APP
	xorl	%ebx, %ebx
.LVL1293:
	jmp	.L722
.L724:
.LBE8818:
.LBE8817:
	.loc 28 87 0
	call	i8042_wait_write.42503
	.loc 28 88 0
	testl	%eax, %eax
	jne	.L723
.LVL1294:
.LBB8819:
.LBB8820:
	.loc 2 82 0
	movb	(%ebp,%ebx), %al
.LVL1295:
#APP
# 82 "src/ioport.h" 1
	outb %al, $96
# 0 "" 2
#NO_APP
.LBE8820:
.LBE8819:
	.loc 28 86 0
	incl	%ebx
.L722:
	cmpl	4(%esp), %ebx
	jl	.L724
	xorl	%ebx, %ebx
.LVL1296:
	jmp	.L725
.LVL1297:
.L728:
	xorl	%edx, %edx
.L727:
.LBB8821:
.LBB8822:
.LBB8823:
.LBB8824:
.LBB8825:
	.loc 2 92 0
#APP
# 92 "src/ioport.h" 1
	inb $100, %al
# 0 "" 2
.LVL1298:
#NO_APP
.LBE8825:
.LBE8824:
	.loc 28 31 0
	testb	$1, %al
	jne	.L726
	.loc 28 33 0
	movl	$50, %eax
.LVL1299:
	movl	%edx, (%esp)
.LVL1300:
	call	udelay.1730
.LBE8823:
	.loc 28 29 0
	movl	(%esp), %edx
	incl	%edx
.LVL1301:
	cmpl	$10000, %edx
	jne	.L727
.LBB8826:
.LBB8827:
	.loc 3 508 0
	pushl	$35
	.cfi_def_cfa_offset 32
	pushl	$__func__.42492
	.cfi_def_cfa_offset 36
	pushl	$.LC12
	.cfi_def_cfa_offset 40
	.cfi_escape 0x2e,0xc
	call	__dprintf.1654
.LVL1302:
	addl	$12, %esp
	.cfi_def_cfa_offset 28
	orl	$-1, %eax
.LVL1303:
	jmp	.L723
.LVL1304:
.L726:
.LBE8827:
.LBE8826:
.LBE8822:
.LBE8821:
.LBB8828:
.LBB8829:
	.loc 2 92 0
#APP
# 92 "src/ioport.h" 1
	inb $96, %al
# 0 "" 2
.LVL1305:
#NO_APP
.LBE8829:
.LBE8828:
	.loc 28 98 0
	movb	%al, (%ebp,%ebx)
	.loc 28 94 0
	incl	%ebx
.L725:
	cmpl	%esi, %ebx
	jl	.L728
.LVL1306:
.L721:
	movl	%edi, %eax
.LVL1307:
.L723:
.LVL1308:
.LBE8816:
.LBE8815:
	.loc 28 113 0
	popl	%esi
	.cfi_def_cfa_offset 24
.LVL1309:
	popl	%edi
	.cfi_def_cfa_offset 20
.LVL1310:
	popl	%ebx
.LVL1311:
	popl	%esi
	popl	%edi
	popl	%ebp
.LVL1312:
	ret
	.cfi_endproc
.LFE1333:
	.size	i8042_command.23898, .-i8042_command.23898
	.section	.rodata.str1.1
.LC13:
	.string	"Got ps2 nak (status=%x)\n"
.LC14:
	.string	"Discarding ps2 data %02x (status=%02x)\n"
	.section	.text.ps2_recvbyte.42608,"ax",@progbits
	.type	ps2_recvbyte.42608, @function
ps2_recvbyte.42608:
.LFB1336:
	.loc 28 141 0
	.cfi_startproc
.LVL1313:
	pushl	%ebp
	.cfi_def_cfa_offset 8
	movl	%esp, %ebp
	.cfi_offset 5, -8
	.cfi_def_cfa_register 5
	pushl	%edi
	pushl	%esi
	pushl	%ebx
	subl	$16, %esp
	movl	%eax, %edi
	.cfi_offset 3, -20
	.cfi_offset 6, -16
	.cfi_offset 7, -12
	movl	%edx, %esi
	movl	%ecx, %ebx
.LBB8830:
.LBB8831:
.LBB8832:
	.loc 7 135 0
#APP
# 135 "src/clock.c" 1
	movl %CS:cpu_khz, %ecx
# 0 "" 2
.LVL1314:
#NO_APP
.LBE8832:
.LBB8833:
.LBB8834:
	.loc 8 85 0
#APP
# 85 "src/util.h" 1
	rdtsc
# 0 "" 2
.LVL1315:
#NO_APP
	movl	%eax, -28(%ebp)
	movl	%edx, -24(%ebp)
.LVL1316:
.LBE8834:
.LBE8833:
	.loc 7 136 0
	movl	%ecx, %eax
	mull	%ebx
	movl	%eax, -20(%ebp)
	movl	%edx, -16(%ebp)
	movl	-28(%ebp), %eax
	movl	-24(%ebp), %edx
	addl	%eax, -20(%ebp)
	adcl	%edx, -16(%ebp)
.L740:
.LBE8831:
.LBE8830:
.LBB8835:
.LBB8836:
.LBB8837:
	.loc 2 92 0
#APP
# 92 "src/ioport.h" 1
	inb $100, %al
# 0 "" 2
.LVL1317:
#NO_APP
.LBE8837:
.LBE8836:
	.loc 28 145 0
	movzbl	%al, %edx
	testb	$1, %dl
	je	.L732
.LBB8838:
.LBB8839:
.LBB8840:
	.loc 2 92 0
#APP
# 92 "src/ioport.h" 1
	inb $96, %al
# 0 "" 2
.LVL1318:
#NO_APP
.LBE8840:
.LBE8839:
	.loc 28 149 0
	movl	%edx, %ecx
.LVL1319:
	shrl	$5, %ecx
	andl	$1, %ecx
	cmpl	%edi, %ecx
	jne	.L733
	.loc 28 150 0
	testl	%esi, %esi
	jne	.L734
	.loc 28 151 0
	movzbl	%al, %eax
.LVL1320:
	jmp	.L735
.LVL1321:
.L734:
	.loc 28 152 0
	cmpb	$-6, %al
	je	.L736
	.loc 28 154 0
	cmpb	$-2, %al
	jne	.L733
	.loc 28 155 0
	pushl	%edx
	pushl	$.LC13
	.cfi_escape 0x2e,0x8
	call	__dprintf.1654
.LVL1322:
	popl	%eax
	popl	%edx
	movl	$254, %eax
	.loc 28 156 0
	jmp	.L735
.LVL1323:
.L733:
	.loc 28 161 0
	pushl	%edx
	movzbl	%al, %eax
.LVL1324:
	pushl	%eax
	pushl	$.LC14
	.cfi_escape 0x2e,0xc
	call	__dprintf.1654
.LVL1325:
	addl	$12, %esp
.LVL1326:
.L732:
.LBE8838:
.LBB8841:
.LBB8842:
.LBB8843:
	.loc 8 85 0
#APP
# 85 "src/util.h" 1
	rdtsc
# 0 "" 2
.LVL1327:
#NO_APP
.LBE8843:
.LBE8842:
.LBE8841:
	.loc 28 164 0
	subl	-20(%ebp), %eax
	sbbl	-16(%ebp), %edx
	cmpl	$0, %edx
	jl	.L737
	jg	.L742
	cmpl	$0, %eax
	jbe	.L737
.L742:
	.loc 28 166 0
	orl	$-1, %eax
	cmpl	$100, %ebx
	jle	.L735
.LBB8844:
.LBB8845:
	.loc 3 508 0
	pushl	$167
	pushl	$__func__.42613
	pushl	$.LC12
	call	__dprintf.1654
.LVL1328:
	addl	$12, %esp
	orl	$-1, %eax
	jmp	.L735
.LVL1329:
.L737:
.LBE8845:
.LBE8844:
.LBB8846:
.LBB8847:
.LBB8848:
.LBB8849:
	.loc 6 72 0
#APP
# 72 "src/util.c" 1
	sti
nop
rep ; nop
cli
cld

# 0 "" 2
#NO_APP
.LBE8849:
.LBE8848:
.LBE8847:
.LBE8846:
.LBE8835:
	.loc 28 171 0
	jmp	.L740
.LVL1330:
.L736:
	movl	$250, %eax
.LVL1331:
.L735:
	.loc 28 172 0
	leal	-12(%ebp), %esp
	popl	%ebx
.LVL1332:
	popl	%esi
.LVL1333:
	popl	%edi
.LVL1334:
	leave
	ret
	.cfi_endproc
.LFE1336:
	.size	ps2_recvbyte.42608, .-ps2_recvbyte.42608
	.section	.text.ps2_sendbyte.42650,"ax",@progbits
	.type	ps2_sendbyte.42650, @function
ps2_sendbyte.42650:
.LFB1337:
	.loc 28 176 0
	.cfi_startproc
.LVL1335:
	pushl	%edi
	.cfi_def_cfa_offset 8
	pushl	%esi
	.cfi_def_cfa_offset 12
	pushl	%ebx
	.cfi_def_cfa_offset 16
	subl	$4, %esp
	.cfi_def_cfa_offset 20
	movl	%eax, %ebx
	.cfi_offset 3, -16
	.cfi_offset 6, -12
	.cfi_offset 7, -8
	movl	%ecx, %esi
	movl	%edx, %edi
	.loc 28 179 0
	testl	%eax, %eax
	je	.L744
.LVL1336:
	movb	%dl, 3(%esp)
.LVL1337:
.LBB8850:
.LBB8851:
	.loc 28 128 0
	leal	3(%esp), %edx
	movl	$4308, %eax
.LVL1338:
	call	i8042_command.23898
.LBE8851:
.LBE8850:
	.loc 28 183 0
	testl	%eax, %eax
.LVL1339:
	jne	.L745
	jmp	.L746
.LVL1340:
.L744:
.LBB8852:
.LBB8853:
	.loc 28 119 0
	call	i8042_wait_write.42503
.LVL1341:
	.loc 28 120 0
	testl	%eax, %eax
.LVL1342:
	jne	.L745
.LBB8854:
.LBB8855:
	.loc 2 82 0
	movl	%edi, %eax
.LVL1343:
#APP
# 82 "src/ioport.h" 1
	outb %al, $96
# 0 "" 2
.LVL1344:
#NO_APP
.L746:
.LBE8855:
.LBE8854:
.LBE8853:
.LBE8852:
	.loc 28 187 0
	movl	%esi, %ecx
	movl	$1, %edx
	movl	%ebx, %eax
.LVL1345:
	call	ps2_recvbyte.42608
	.loc 28 188 0
	testl	%eax, %eax
.LVL1346:
	js	.L745
	.loc 28 190 0
	cmpl	$250, %eax
	sete	%al
.LVL1347:
	movzbl	%al, %eax
.LVL1348:
	decl	%eax
.L745:
.LVL1349:
	.loc 28 194 0
	popl	%ecx
	.cfi_def_cfa_offset 16
	popl	%ebx
.LVL1350:
	popl	%esi
.LVL1351:
	popl	%edi
.LVL1352:
	ret
	.cfi_endproc
.LFE1337:
	.size	ps2_sendbyte.42650, .-ps2_sendbyte.42650
	.section	.text.ps2_command.42672,"ax",@progbits
	.type	ps2_command.42672, @function
ps2_command.42672:
.LFB1338:
	.loc 28 198 0
	.cfi_startproc
.LVL1353:
	pushl	%ebp
	.cfi_def_cfa_offset 8
	pushl	%edi
	.cfi_def_cfa_offset 12
	pushl	%esi
	.cfi_def_cfa_offset 16
	pushl	%ebx
	.cfi_def_cfa_offset 20
	subl	$16, %esp
	.cfi_def_cfa_offset 36
	movl	%eax, %esi
	.cfi_offset 3, -20
	.cfi_offset 6, -16
	.cfi_offset 7, -12
	.cfi_offset 5, -8
	movl	%edx, %edi
	movl	%ecx, %ebx
	.loc 28 200 0
	movl	%edx, %eax
.LVL1354:
	sarl	$8, %eax
	andl	$15, %eax
	movl	%eax, 8(%esp)
	.loc 28 201 0
	movl	%edx, %eax
	sarl	$12, %eax
	andl	$15, %eax
	movl	%eax, 4(%esp)
.LBB8856:
.LBB8857:
	.loc 10 249 0
	movl	$64, %eax
#APP
# 249 "src/biosvar.h" 1
	movw %ax, %ES
# 0 "" 2
#NO_APP
.LBB8858:
#APP
# 249 "src/biosvar.h" 1
	movw %ES:14, %ax
# 0 "" 2
.LVL1355:
#NO_APP
.LBE8858:
.LBE8857:
.LBE8856:
	.loc 28 204 0
#APP
# 204 "src/ps2port.c" 1
	movw %ax, %ES
# 0 "" 2
#NO_APP
.LBB8859:
#APP
# 204 "src/ps2port.c" 1
	movb %ES:289, %al
# 0 "" 2
.LVL1356:
#NO_APP
.LBE8859:
	movb	%al, 15(%esp)
.LVL1357:
	.loc 28 206 0
	andl	$-52, %eax
.LVL1358:
	orl	$48, %eax
	movb	%al, 14(%esp)
.LVL1359:
	.loc 28 208 0
	leal	14(%esp), %edx
.LVL1360:
	movl	$4192, %eax
	call	i8042_command.23898
.LVL1361:
	movl	%eax, %ecx
.LVL1362:
	.loc 28 209 0
	testl	%eax, %eax
	jne	.L750
.LVL1363:
.LBB8860:
.LBB8861:
.LBB8862:
.LBB8863:
	.loc 6 72 0
#APP
# 72 "src/util.c" 1
	sti
nop
rep ; nop
cli
cld

# 0 "" 2
#NO_APP
.LBE8863:
.LBE8862:
.LBE8861:
.LBE8860:
	.loc 28 216 0
	testl	%esi, %esi
	je	.L751
	.loc 28 217 0
	andb	$-33, 14(%esp)
.LVL1364:
	jmp	.L752
.LVL1365:
.L751:
	.loc 28 219 0
	andb	$-17, 14(%esp)
.LVL1366:
.L752:
	.loc 28 220 0
	leal	14(%esp), %edx
	movl	$4192, %eax
.LVL1367:
	call	i8042_command.23898
.LVL1368:
	movl	%eax, %ecx
.LVL1369:
	.loc 28 221 0
	testl	%eax, %eax
	jne	.L753
.LVL1370:
	.loc 28 224 0
	cmpl	$767, %edi
	jne	.L754
	.loc 28 228 0
	movw	$1000, %cx
	movl	$255, %edx
	movl	%esi, %eax
.LVL1371:
	call	ps2_sendbyte.42650
	.loc 28 229 0
	movl	%eax, %ecx
.LVL1372:
	testl	%eax, %eax
	jne	.L753
	.loc 28 233 0
	movw	$4000, %cx
	xorl	%edx, %edx
	movl	%esi, %eax
.LVL1373:
	call	ps2_recvbyte.42608
	movl	%eax, %ecx
.LVL1374:
	.loc 28 234 0
	testl	%eax, %eax
	js	.L753
.LVL1375:
	.loc 28 236 0
	movb	%al, (%ebx)
	.loc 28 237 0
	movl	$100, %ecx
	xorl	%edx, %edx
	movl	%esi, %eax
.LVL1376:
	call	ps2_recvbyte.42608
	.loc 28 241 0
	movl	%eax, %edx
.LVL1377:
	notl	%edx
	sarl	$31, %edx
	andl	%edx, %eax
	movb	%al, 1(%ebx)
	jmp	.L770
.LVL1378:
.L754:
	.loc 28 242 0
	cmpl	$754, %edi
	jne	.L757
	.loc 28 246 0
	movl	$200, %ecx
	movl	$242, %edx
	movl	%esi, %eax
.LVL1379:
	call	ps2_sendbyte.42650
	.loc 28 247 0
	movl	%eax, %ecx
.LVL1380:
	testl	%eax, %eax
	jne	.L753
	.loc 28 251 0
	movw	$500, %cx
	xorl	%edx, %edx
	movl	%esi, %eax
.LVL1381:
	call	ps2_recvbyte.42608
	movl	%eax, %ecx
.LVL1382:
	.loc 28 252 0
	testl	%eax, %eax
	js	.L753
.LVL1383:
	.loc 28 254 0
	movb	%al, (%ebx)
	.loc 28 255 0
	leal	-171(%eax), %eax
.LVL1384:
	cmpl	$1, %eax
	jbe	.L759
	cmpl	$43, %ecx
	je	.L759
	cmpl	$96, %ecx
	je	.L759
	cmpl	$93, %ecx
	je	.L759
	cmpl	$71, %ecx
	jne	.L760
.L759:
	.loc 28 258 0
	movl	$500, %ecx
.LVL1385:
	xorl	%edx, %edx
	movl	%esi, %eax
	call	ps2_recvbyte.42608
	movl	%eax, %ecx
.LVL1386:
	.loc 28 259 0
	testl	%eax, %eax
	js	.L753
.LVL1387:
	.loc 28 261 0
	movb	%al, 1(%ebx)
	jmp	.L770
.LVL1388:
.L760:
	.loc 28 263 0
	movb	$0, 1(%ebx)
.LVL1389:
.L770:
	xorl	%ecx, %ecx
	jmp	.L753
.LVL1390:
.L757:
.LBB8864:
	.loc 28 267 0
	movl	%edi, %eax
.LVL1391:
	movzbl	%al, %edx
.LVL1392:
	movl	$200, %ecx
.LVL1393:
	movl	%esi, %eax
	call	ps2_sendbyte.42650
.LVL1394:
	movl	%eax, %ebp
.LVL1395:
	.loc 28 268 0
	xorl	%edi, %edi
.LVL1396:
	testl	%eax, %eax
	je	.L762
.LVL1397:
	jmp	.L761
.LVL1398:
.L763:
	.loc 28 274 0
	movzbl	(%ebx,%edi), %edx
	movl	$200, %ecx
	movl	%esi, %eax
.LVL1399:
	call	ps2_sendbyte.42650
	movl	%eax, %ecx
.LVL1400:
	.loc 28 275 0
	testl	%eax, %eax
	jne	.L753
.LVL1401:
	.loc 28 273 0
	incl	%edi
.LVL1402:
.L762:
	cmpl	4(%esp), %edi
	jl	.L763
	xorl	%edi, %edi
.LVL1403:
	jmp	.L764
.L765:
	.loc 28 281 0
	movl	$500, %ecx
	xorl	%edx, %edx
	movl	%esi, %eax
.LVL1404:
	call	ps2_recvbyte.42608
	movl	%eax, %ecx
.LVL1405:
	.loc 28 282 0
	testl	%eax, %eax
	js	.L753
.LVL1406:
	.loc 28 284 0
	movb	%al, (%ebx,%edi)
	.loc 28 280 0
	incl	%edi
.LVL1407:
.L764:
	cmpl	8(%esp), %edi
	jl	.L765
.L761:
	movl	%ebp, %ecx
.LVL1408:
.L753:
.LBE8864:
	.loc 28 292 0
	leal	15(%esp), %edx
	movl	$4192, %eax
	movl	%ecx, (%esp)
.LVL1409:
	call	i8042_command.23898
	.loc 28 293 0
	testl	%eax, %eax
.LVL1410:
	movl	(%esp), %ecx
	je	.L750
	movl	%eax, %ecx
.LVL1411:
.L750:
	.loc 28 297 0
	movl	%ecx, %eax
.LVL1412:
	addl	$16, %esp
	popl	%ebx
.LVL1413:
	popl	%esi
.LVL1414:
	popl	%edi
.LVL1415:
	popl	%ebp
	ret
	.cfi_endproc
.LFE1338:
	.size	ps2_command.42672, .-ps2_command.42672
	.section	.text.handle_15c2.1703,"ax",@progbits
	.type	handle_15c2.1703, @function
handle_15c2.1703:
.LFB786:
	.loc 9 263 0
	.cfi_startproc
.LVL1416:
	pushl	%ebp
	.cfi_def_cfa_offset 8
	pushl	%edi
	.cfi_def_cfa_offset 12
	pushl	%esi
	.cfi_def_cfa_offset 16
	pushl	%ebx
	.cfi_def_cfa_offset 20
	subl	$4, %esp
	.cfi_def_cfa_offset 24
	movl	%eax, %ebx
	.cfi_offset 3, -20
	.cfi_offset 6, -16
	.cfi_offset 7, -12
	.cfi_offset 5, -8
	.loc 9 271 0
	movb	28(%eax), %al
.LVL1417:
	cmpb	$3, %al
	je	.L776
	ja	.L781
	cmpb	$1, %al
	je	.L823
	movb	17(%ebx), %al
	ja	.L775
	jmp	.L828
.L781:
	cmpb	$5, %al
	je	.L778
	jb	.L777
	cmpb	$6, %al
	je	.L779
	cmpb	$7, %al
	jne	.L808
	jmp	.L829
.L828:
.LBB8865:
.LBB8866:
	.loc 9 87 0
	testb	%al, %al
	je	.L783
	decb	%al
	jne	.L808
	jmp	.L830
.L783:
.LBB8867:
.LBB8868:
.LBB8869:
.LBB8870:
	.loc 10 249 0
	movl	$64, %eax
#APP
# 249 "src/biosvar.h" 1
	movw %ax, %ES
# 0 "" 2
#NO_APP
.LBB8871:
#APP
# 249 "src/biosvar.h" 1
	movw %ES:14, %dx
# 0 "" 2
.LVL1418:
#NO_APP
.LBE8871:
.LBE8870:
.LBE8869:
.LBB8872:
.LBB8873:
	.loc 9 34 0
#APP
# 34 "src/mouse.c" 1
	movw %dx, %ES
# 0 "" 2
#NO_APP
.LBB8874:
#APP
# 34 "src/mouse.c" 1
	movb %ES:289, %al
# 0 "" 2
.LVL1419:
#NO_APP
.LBE8874:
	.loc 9 35 0
	orl	$32, %eax
.LVL1420:
	.loc 9 36 0
	andl	$-3, %eax
.LVL1421:
.LBB8875:
	.loc 9 37 0
#APP
# 37 "src/mouse.c" 1
	movw %dx, %ES
# 0 "" 2
# 37 "src/mouse.c" 1
	movb %al, %ES:289
# 0 "" 2
#NO_APP
.LBE8875:
.LBB8876:
.LBB8877:
	.loc 28 313 0
	xorl	%ecx, %ecx
	movl	$245, %edx
.LVL1422:
	jmp	.L817
.LVL1423:
.L830:
.LBE8877:
.LBE8876:
.LBE8873:
.LBE8872:
.LBE8868:
.LBE8867:
.LBB8878:
.LBB8879:
.LBB8880:
.LBB8881:
	.loc 10 249 0
	movl	$64, %eax
#APP
# 249 "src/biosvar.h" 1
	movw %ax, %ES
# 0 "" 2
#NO_APP
.LBB8882:
#APP
# 249 "src/biosvar.h" 1
	movw %ES:14, %dx
# 0 "" 2
.LVL1424:
#NO_APP
.LBE8882:
.LBE8881:
.LBE8880:
	.loc 9 59 0
#APP
# 59 "src/mouse.c" 1
	movw %dx, %ES
# 0 "" 2
#NO_APP
.LBB8883:
#APP
# 59 "src/mouse.c" 1
	movb %ES:39, %al
# 0 "" 2
.LVL1425:
#NO_APP
.LBE8883:
	.loc 9 60 0
	testb	%al, %al
	js	.L787
.LBB8884:
.LBB8885:
.LBB8886:
.LBB8887:
	.loc 14 90 0
	movb	$5, 29(%ebx)
	jmp	.L811
.L787:
.LBE8887:
.LBE8886:
.LBE8885:
.LBE8884:
	.loc 9 65 0
#APP
# 65 "src/mouse.c" 1
	movw %dx, %ES
# 0 "" 2
#NO_APP
.LBB8888:
#APP
# 65 "src/mouse.c" 1
	movb %ES:289, %al
# 0 "" 2
.LVL1426:
#NO_APP
.LBE8888:
	.loc 9 66 0
	andl	$-33, %eax
.LVL1427:
	.loc 9 67 0
	orl	$2, %eax
.LVL1428:
.LBB8889:
	.loc 9 68 0
#APP
# 68 "src/mouse.c" 1
	movw %dx, %ES
# 0 "" 2
# 68 "src/mouse.c" 1
	movb %al, %ES:289
# 0 "" 2
#NO_APP
.LBE8889:
.LBB8890:
.LBB8891:
	.loc 28 313 0
	xorl	%ecx, %ecx
	movl	$244, %edx
.LVL1429:
	jmp	.L817
.LVL1430:
.L775:
.LBE8891:
.LBE8890:
.LBE8879:
.LBE8878:
.LBE8866:
.LBE8865:
.LBB8892:
.LBB8893:
	.loc 9 114 0
	cmpb	$6, %al
	ja	.L815
.LBB8894:
	.loc 9 118 0
	movzbl	%al, %eax
#APP
# 118 "src/mouse.c" 1
	movb %CS:sample_rates.24115(%eax), %al
# 0 "" 2
.LVL1431:
#NO_APP
.LBE8894:
	movb	%al, 3(%esp)
.LVL1432:
.LBB8895:
.LBB8896:
	.loc 28 313 0
	leal	3(%esp), %ecx
	movl	$4339, %edx
	jmp	.L817
.LVL1433:
.L776:
.LBE8896:
.LBE8895:
.LBE8893:
.LBE8892:
.LBB8897:
.LBB8898:
	.loc 9 135 0
	movb	17(%ebx), %al
	cmpb	$3, %al
	jbe	.L792
.L815:
.LBB8899:
.LBB8900:
.LBB8901:
.LBB8902:
	.loc 14 90 0
	movb	$2, 29(%ebx)
	jmp	.L811
.L792:
.LBE8902:
.LBE8901:
.LBE8900:
.LBE8899:
	.loc 9 139 0
	movb	%al, 3(%esp)
.LVL1434:
.LBB8903:
.LBB8904:
	.loc 28 313 0
	leal	3(%esp), %ecx
	movl	$4328, %edx
	jmp	.L817
.LVL1435:
.L777:
.LBE8904:
.LBE8903:
.LBE8898:
.LBE8897:
.LBB8905:
.LBB8906:
.LBB8907:
.LBB8908:
	movl	%esp, %ecx
	movl	$754, %edx
	movl	$1, %eax
	call	ps2_command.42672
.LBE8908:
.LBE8907:
	.loc 9 153 0
	testl	%eax, %eax
.LVL1436:
	jne	.L814
	.loc 9 157 0
	movb	(%esp), %al
.LVL1437:
	jmp	.L813
.L778:
.LBE8906:
.LBE8905:
.LBB8909:
.LBB8910:
	.loc 9 165 0
	cmpb	$3, 17(%ebx)
	je	.L795
.LBB8911:
.LBB8912:
.LBB8913:
.LBB8914:
	.loc 14 90 0
	movb	$3, 29(%ebx)
	jmp	.L811
.L795:
.LBE8914:
.LBE8913:
.LBE8912:
.LBE8911:
.LBB8915:
.LBB8916:
	.loc 10 249 0
	movl	$64, %eax
#APP
# 249 "src/biosvar.h" 1
	movw %ax, %ES
# 0 "" 2
#NO_APP
.LBB8917:
#APP
# 249 "src/biosvar.h" 1
	movw %ES:14, %ax
# 0 "" 2
.LVL1438:
#NO_APP
.LBE8917:
.LBE8916:
.LBE8915:
.LBB8918:
	.loc 9 170 0
#APP
# 170 "src/mouse.c" 1
	movw %ax, %ES
# 0 "" 2
#NO_APP
	xorl	%edx, %edx
#APP
# 170 "src/mouse.c" 1
	movb %dl, %ES:38
# 0 "" 2
#NO_APP
.LBE8918:
.LBB8919:
	.loc 9 171 0
	movb	17(%ebx), %dl
.LVL1439:
#APP
# 171 "src/mouse.c" 1
	movw %ax, %ES
# 0 "" 2
# 171 "src/mouse.c" 1
	movb %dl, %ES:39
# 0 "" 2
#NO_APP
.L823:
.LBE8919:
.LBB8920:
.LBB8921:
.LBB8922:
.LBB8923:
	.loc 28 313 0
	movl	%esp, %ecx
	movl	$767, %edx
.LVL1440:
	movl	$1, %eax
.LVL1441:
	call	ps2_command.42672
.LBE8923:
.LBE8922:
	.loc 9 100 0
	testl	%eax, %eax
.LVL1442:
	jne	.L814
	.loc 9 104 0
	movb	(%esp), %al
.LVL1443:
	movb	%al, 16(%ebx)
	.loc 9 105 0
	movb	1(%esp), %al
.L813:
	movb	%al, 17(%ebx)
	jmp	.L812
.L779:
.LBE8921:
.LBE8920:
.LBE8910:
.LBE8909:
.LBB8924:
.LBB8925:
	.loc 9 225 0
	movb	17(%ebx), %al
	cmpb	$1, %al
	je	.L799
	jb	.L798
	cmpb	$2, %al
	jne	.L808
	jmp	.L831
.L798:
.LBB8926:
.LBB8927:
.LBB8928:
.LBB8929:
	.loc 28 313 0
	movl	%esp, %ecx
	movl	$1001, %edx
	movl	$1, %eax
	call	ps2_command.42672
.LBE8929:
.LBE8928:
	.loc 9 183 0
	testl	%eax, %eax
.LVL1444:
	jne	.L814
	.loc 9 187 0
	movb	(%esp), %al
.LVL1445:
	movb	%al, 16(%ebx)
	.loc 9 188 0
	movb	1(%esp), %al
	movb	%al, 24(%ebx)
	.loc 9 189 0
	movb	2(%esp), %al
	movb	%al, 20(%ebx)
	jmp	.L812
.L799:
.LBE8927:
.LBE8926:
.LBB8930:
.LBB8931:
.LBB8932:
.LBB8933:
	.loc 28 313 0
	xorl	%ecx, %ecx
	movl	$230, %edx
	jmp	.L817
.L831:
.LBE8933:
.LBE8932:
.LBE8931:
.LBE8930:
.LBB8934:
.LBB8935:
.LBB8936:
.LBB8937:
	xorl	%ecx, %ecx
	movl	$231, %edx
.LVL1446:
.L817:
	movl	$1, %eax
.LVL1447:
	call	ps2_command.42672
.LBE8937:
.LBE8936:
	.loc 9 209 0
	testl	%eax, %eax
.LVL1448:
	je	.L812
.LVL1449:
.L814:
.LBB8938:
.LBB8939:
.LBB8940:
.LBB8941:
	.loc 14 90 0
	movb	$4, 29(%ebx)
	jmp	.L811
.LVL1450:
.L829:
.LBE8941:
.LBE8940:
.LBE8939:
.LBE8938:
.LBE8935:
.LBE8934:
.LBE8925:
.LBE8924:
.LBB8942:
.LBB8943:
.LBB8944:
	.loc 9 237 0
	movzwl	2(%ebx), %eax
	sall	$16, %eax
	movzwl	16(%ebx), %ebp
.LBE8944:
.LBB8945:
.LBB8946:
	.loc 10 249 0
	movl	$64, %edx
#APP
# 249 "src/biosvar.h" 1
	movw %dx, %ES
# 0 "" 2
#NO_APP
.LBB8947:
#APP
# 249 "src/biosvar.h" 1
	movw %ES:14, %di
# 0 "" 2
.LVL1451:
#NO_APP
.LBE8947:
.LBE8946:
.LBE8945:
	.loc 9 239 0
#APP
# 239 "src/mouse.c" 1
	movw %di, %ES
# 0 "" 2
#NO_APP
.LBB8948:
#APP
# 239 "src/mouse.c" 1
	movb %ES:39, %dl
# 0 "" 2
#NO_APP
	movl	%edx, %esi
.LVL1452:
.LBE8948:
	.loc 9 240 0
	orl	%eax, %ebp
	jne	.L804
	.loc 9 242 0
	testb	%dl, %dl
	jns	.L805
	.loc 9 243 0
	andl	$127, %esi
.LVL1453:
.LBB8949:
.LBB8950:
	.loc 9 34 0
#APP
# 34 "src/mouse.c" 1
	movw %di, %ES
# 0 "" 2
#NO_APP
.LBB8951:
#APP
# 34 "src/mouse.c" 1
	movb %ES:289(%ebp), %al
# 0 "" 2
.LVL1454:
#NO_APP
.LBE8951:
	.loc 9 35 0
	orl	$32, %eax
.LVL1455:
	.loc 9 36 0
	andl	$-3, %eax
.LVL1456:
.LBB8952:
	.loc 9 37 0
#APP
# 37 "src/mouse.c" 1
	movw %di, %ES
# 0 "" 2
# 37 "src/mouse.c" 1
	movb %al, %ES:289(%ebp)
# 0 "" 2
#NO_APP
.LBE8952:
.LBB8953:
.LBB8954:
	.loc 28 313 0
	xorl	%ecx, %ecx
	movl	$245, %edx
	movl	$1, %eax
.LVL1457:
	call	ps2_command.42672
	jmp	.L805
.L804:
.LBE8954:
.LBE8953:
.LBE8950:
.LBE8949:
	.loc 9 248 0
	orl	$-128, %esi
.LVL1458:
.L805:
.LBB8955:
	.loc 9 250 0
#APP
# 250 "src/mouse.c" 1
	movw %di, %ES
# 0 "" 2
#NO_APP
	movl	%esi, %eax
#APP
# 250 "src/mouse.c" 1
	movb %al, %ES:39
# 0 "" 2
#NO_APP
.LBE8955:
.LBB8956:
	.loc 9 251 0
#APP
# 251 "src/mouse.c" 1
	movw %di, %ES
# 0 "" 2
# 251 "src/mouse.c" 1
	movl %ebp, %ES:34
# 0 "" 2
.LVL1459:
#NO_APP
.L812:
.LBE8956:
.LBB8957:
.LBB8958:
	.loc 14 77 0
	movb	$0, 29(%ebx)
.LBB8959:
.LBB8960:
	.loc 14 62 0
	andw	$-2, 36(%ebx)
.LBE8960:
.LBE8959:
.LBE8958:
.LBE8957:
.LBE8943:
.LBE8942:
	.loc 9 279 0
	jmp	.L806
.LVL1460:
.L808:
.LBB8961:
.LBB8962:
.LBB8963:
.LBB8964:
.LBB8965:
.LBB8966:
	.loc 14 90 0
	movb	$1, 29(%ebx)
.LVL1461:
.L811:
.LBB8967:
.LBB8968:
	.loc 14 60 0
	orw	$1, 36(%ebx)
.LVL1462:
.L806:
.LBE8968:
.LBE8967:
.LBE8966:
.LBE8965:
.LBE8964:
.LBE8963:
.LBE8962:
.LBE8961:
	.loc 9 282 0
	popl	%ebx
	.cfi_def_cfa_offset 20
.LVL1463:
	popl	%ebx
	popl	%esi
.LVL1464:
	popl	%edi
.LVL1465:
	popl	%ebp
	ret
	.cfi_endproc
.LFE786:
	.size	handle_15c2.1703, .-handle_15c2.1703
	.section	.text.handle_15,"ax",@progbits
.globl handle_15
	.type	handle_15, @function
handle_15:
.LFB2439:
	.file 29 "src/system.c"
	.loc 29 344 0
	.cfi_startproc
.LVL1466:
	pushl	%edi
	.cfi_def_cfa_offset 8
	leal	8(%esp), %edi
	.cfi_offset 7, -8
	.cfi_def_cfa 7, 0
	andl	$-16, %esp
	pushl	-4(%edi)
	pushl	%ebp
	movl	%esp, %ebp
	.cfi_escape 0x10,0x5,0x2,0x75,0x0
	pushl	%edi
	.cfi_escape 0xf,0x3,0x75,0x7c,0x6
	pushl	%esi
	pushl	%ebx
	subl	$76, %esp
	movl	%eax, %edx
	.loc 29 346 0
	movb	29(%eax), %al
.LVL1467:
	cmpb	$-121, %al
	je	.L841
	.cfi_escape 0x10,0x3,0x2,0x75,0x74
	.cfi_escape 0x10,0x6,0x2,0x75,0x78
	ja	.L849
	cmpb	$83, %al
	je	.L837
	ja	.L850
	cmpb	$79, %al
	je	.L886
	cmpb	$82, %al
	je	.L889
	cmpb	$36, %al
	jne	.L833
	jmp	.L898
.L850:
	cmpb	$-125, %al
	je	.L839
	cmpb	$-122, %al
	jne	.L833
	jmp	.L899
.L849:
	cmpb	$-111, %al
	ja	.L851
	cmpb	$-112, %al
	jae	.L880
	cmpb	$-120, %al
	je	.L842
	cmpb	$-119, %al
	jne	.L833
	jmp	.L900
.L851:
	cmpb	$-63, %al
	je	.L846
	ja	.L852
	cmpb	$-64, %al
	jne	.L833
	jmp	.L901
.L852:
	cmpb	$-62, %al
	je	.L847
	cmpb	$-24, %al
	jne	.L833
	jmp	.L902
.L898:
.LBB8969:
.LBB8970:
	.loc 29 67 0
	movb	28(%edx), %al
	cmpb	$1, %al
	je	.L855
	jb	.L854
	cmpb	$2, %al
	je	.L856
	cmpb	$3, %al
	jne	.L833
	jmp	.L903
.L854:
.LBB8971:
.LBB8972:
.LBB8973:
.LBB8974:
.LBB8975:
	.loc 2 92 0
#APP
# 92 "src/ioport.h" 1
	inb $146, %al
# 0 "" 2
#NO_APP
	jmp	.L867
.L855:
.LBE8975:
.LBE8974:
.LBE8973:
.LBE8972:
.LBE8971:
.LBB8976:
.LBB8977:
.LBB8978:
.LBB8979:
.LBB8980:
#APP
# 92 "src/ioport.h" 1
	inb $146, %al
# 0 "" 2
.LVL1468:
#NO_APP
.L890:
.LBE8980:
.LBE8979:
.LBB8981:
.LBB8982:
	.loc 2 82 0
	orl	$2, %eax
.LVL1469:
.L888:
#APP
# 82 "src/ioport.h" 1
	outb %al, $146
# 0 "" 2
.LVL1470:
#NO_APP
.L889:
.LBE8982:
.LBE8981:
.LBE8978:
.LBE8977:
.LBB8983:
.LBB8984:
	.loc 14 77 0
	movb	$0, 29(%edx)
	jmp	.L862
.LVL1471:
.L856:
.LBE8984:
.LBE8983:
.LBE8976:
.LBB8985:
.LBB8986:
.LBB8987:
.LBB8988:
	.loc 2 92 0
#APP
# 92 "src/ioport.h" 1
	inb $146, %al
# 0 "" 2
.LVL1472:
#NO_APP
.LBE8988:
.LBE8987:
	.loc 29 47 0
	shrl	%eax
.LVL1473:
	andl	$1, %eax
	movb	%al, 28(%edx)
	jmp	.L889
.L903:
.LBE8986:
.LBE8985:
.LBB8989:
.LBB8990:
	.loc 29 54 0
	movw	$3, 16(%edx)
	jmp	.L889
.L837:
.LBE8990:
.LBE8989:
.LBE8970:
.LBE8969:
	.loc 29 350 0
	movl	%edx, %eax
	call	handle_1553.1752
.LVL1474:
	jmp	.L880
.LVL1475:
.L839:
.LBB8991:
.LBB8992:
	.loc 7 568 0
	movb	28(%edx), %al
	testb	%al, %al
	je	.L859
	decb	%al
	jne	.L883
	jmp	.L904
.L859:
.LBB9023:
.LBB9024:
	.loc 7 542 0
	movw	16(%edx), %ax
	movw	%ax, -58(%ebp)
	movw	2(%edx), %si
	movw	24(%edx), %cx
	movw	%cx, -56(%ebp)
	movw	20(%edx), %bx
	movw	%bx, -36(%ebp)
.LBB9026:
.LBB9027:
	.loc 7 498 0
	movl	$64, %ecx
#APP
# 498 "src/clock.c" 1
	movw %cx, %ES
# 0 "" 2
#NO_APP
.LBB9032:
#APP
# 498 "src/clock.c" 1
	movb %ES:160, %al
# 0 "" 2
.LVL1476:
#NO_APP
.LBE9032:
	andl	$1, %eax
.LVL1477:
	jne	.L833
.LBB9031:
	.loc 7 502 0
#APP
# 502 "src/clock.c" 1
	movw %cx, %ES
# 0 "" 2
#NO_APP
	movl	$1, %edi
	movl	%edi, %ebx
#APP
# 502 "src/clock.c" 1
	movb %bl, %ES:160(%eax)
# 0 "" 2
#NO_APP
.LBE9031:
.LBB9029:
.LBB9030:
	.loc 7 503 0
	sall	$16, %esi
	movzwl	-58(%ebp), %ebx
	orl	%esi, %ebx
.LBE9030:
#APP
# 503 "src/clock.c" 1
	movw %cx, %ES
# 0 "" 2
# 503 "src/clock.c" 1
	movl %ebx, %ES:152(%eax)
# 0 "" 2
#NO_APP
.LBE9029:
.LBB9028:
	.loc 7 504 0
#APP
# 504 "src/clock.c" 1
	movw %cx, %ES
# 0 "" 2
#NO_APP
.LBE9028:
.LBE9027:
.LBE9026:
	.loc 7 542 0
	movl	-56(%ebp), %ebx
	sall	$16, %ebx
	movzwl	-36(%ebp), %esi
	orl	%esi, %ebx
.LBB9025:
.LBB9051:
.LBB9033:
	.loc 7 504 0
#APP
# 504 "src/clock.c" 1
	movl %ebx, %ES:156(%eax)
# 0 "" 2
#NO_APP
.LBE9033:
.LBB9034:
.LBB9035:
.LBB9036:
.LBB9037:
	.loc 10 249 0
#APP
# 249 "src/biosvar.h" 1
	movw %cx, %ES
# 0 "" 2
#NO_APP
.LBB9038:
#APP
# 249 "src/biosvar.h" 1
	movw %ES:14(%eax), %bx
# 0 "" 2
.LVL1478:
#NO_APP
.LBE9038:
.LBE9037:
.LBE9036:
	.loc 7 473 0
#APP
# 473 "src/clock.c" 1
	movw %bx, %ES
# 0 "" 2
#NO_APP
.LBB9039:
#APP
# 473 "src/clock.c" 1
	movl %ES:298(%eax), %ecx
# 0 "" 2
.LVL1479:
#NO_APP
.LBE9039:
.LBB9040:
	.loc 7 474 0
	leal	1(%ecx), %esi
.LVL1480:
#APP
# 474 "src/clock.c" 1
	movw %bx, %ES
# 0 "" 2
# 474 "src/clock.c" 1
	movl %esi, %ES:298(%eax)
# 0 "" 2
#NO_APP
.LBE9040:
	.loc 7 475 0
	testl	%ecx, %ecx
	jne	.L862
.LBB9041:
.LBB9042:
.LBB9043:
	.loc 2 82 0
	movb	$-117, %bl
.LVL1481:
	movb	%bl, %al
#APP
# 82 "src/ioport.h" 1
	outb %al, $112
# 0 "" 2
#NO_APP
.LBE9043:
.LBE9042:
.LBB9044:
.LBB9045:
	.loc 2 92 0
#APP
# 92 "src/ioport.h" 1
	inb $113, %al
# 0 "" 2
#NO_APP
	movb	%al, %cl
.LVL1482:
.LBE9045:
.LBE9044:
.LBE9041:
.LBB9046:
.LBB9047:
.LBB9048:
	.loc 2 82 0
	movb	%bl, %al
#APP
# 82 "src/ioport.h" 1
	outb %al, $112
# 0 "" 2
#NO_APP
.LBE9048:
.LBE9047:
.LBB9049:
.LBB9050:
	orl	$64, %ecx
	movb	%cl, %al
	jmp	.L887
.LVL1483:
.L904:
.LBE9050:
.LBE9049:
.LBE9046:
.LBE9035:
.LBE9034:
.LBE9051:
.LBE9025:
.LBE9024:
.LBE9023:
.LBB9001:
.LBB9002:
.LBB9003:
	.loc 7 512 0
	movl	$64, %eax
#APP
# 512 "src/clock.c" 1
	movw %ax, %ES
# 0 "" 2
#NO_APP
.LBB9004:
#APP
# 512 "src/clock.c" 1
	movb %ES:160, %cl
# 0 "" 2
.LVL1484:
#NO_APP
.LBE9004:
	andb	$1, %cl
	je	.L862
.LBB9005:
	.loc 7 515 0
#APP
# 515 "src/clock.c" 1
	movw %ax, %ES
# 0 "" 2
#NO_APP
	xorl	%ecx, %ecx
.LVL1485:
#APP
# 515 "src/clock.c" 1
	movb %cl, %ES:160
# 0 "" 2
#NO_APP
.LBE9005:
.LBB9006:
.LBB9007:
.LBB9008:
.LBB9009:
	.loc 10 249 0
#APP
# 249 "src/biosvar.h" 1
	movw %ax, %ES
# 0 "" 2
#NO_APP
.LBB9010:
#APP
# 249 "src/biosvar.h" 1
	movw %ES:14, %cx
# 0 "" 2
.LVL1486:
#NO_APP
.LBE9010:
.LBE9009:
.LBE9008:
	.loc 7 486 0
#APP
# 486 "src/clock.c" 1
	movw %cx, %ES
# 0 "" 2
#NO_APP
.LBB9011:
#APP
# 486 "src/clock.c" 1
	movl %ES:298, %eax
# 0 "" 2
.LVL1487:
#NO_APP
.LBE9011:
.LBB9012:
	.loc 7 487 0
	leal	-1(%eax), %ebx
.LVL1488:
#APP
# 487 "src/clock.c" 1
	movw %cx, %ES
# 0 "" 2
# 487 "src/clock.c" 1
	movl %ebx, %ES:298
# 0 "" 2
#NO_APP
.LBE9012:
	.loc 7 488 0
	decl	%eax
.LVL1489:
	jne	.L862
.LBB9013:
.LBB9014:
.LBB9015:
	.loc 2 82 0
	movb	$-117, %cl
.LVL1490:
	movb	%cl, %al
#APP
# 82 "src/ioport.h" 1
	outb %al, $112
# 0 "" 2
#NO_APP
.LBE9015:
.LBE9014:
.LBB9016:
.LBB9017:
	.loc 2 92 0
#APP
# 92 "src/ioport.h" 1
	inb $113, %al
# 0 "" 2
#NO_APP
	movb	%al, %bl
.LVL1491:
.LBE9017:
.LBE9016:
.LBE9013:
.LBB9018:
.LBB9019:
.LBB9020:
	.loc 2 82 0
	movb	%cl, %al
#APP
# 82 "src/ioport.h" 1
	outb %al, $112
# 0 "" 2
#NO_APP
.LBE9020:
.LBE9019:
.LBB9021:
.LBB9022:
	movl	%ebx, %eax
.LVL1492:
	andl	$191, %eax
.LVL1493:
.L887:
#APP
# 82 "src/ioport.h" 1
	outb %al, $113
# 0 "" 2
#NO_APP
	jmp	.L862
.LVL1494:
.L883:
.LBE9022:
.LBE9021:
.LBE9018:
.LBE9007:
.LBE9006:
.LBE9003:
.LBE9002:
.LBE9001:
.LBB8993:
.LBB8994:
.LBB8995:
.LBB8996:
.LBB8997:
.LBB8998:
	.loc 14 90 0
	movb	$-122, 29(%edx)
.LBB8999:
.LBB9000:
	.loc 14 60 0
	orw	$1, 36(%edx)
.LBE9000:
.LBE8999:
.LBE8998:
.LBE8997:
.LBE8996:
.LBE8995:
	.loc 7 562 0
	decb	28(%edx)
	jmp	.L880
.L899:
.LBE8994:
.LBE8993:
.LBE8992:
.LBE8991:
.LBB9058:
.LBB9059:
	.loc 7 526 0
	movb	$0, -25(%ebp)
.LVL1495:
	.loc 7 527 0
	movw	24(%edx), %si
	movw	20(%edx), %cx
	movw	%cx, -56(%ebp)
.LBB9060:
	.loc 7 528 0
#APP
# 528 "src/clock.c" 1
	movw %SS, -36(%ebp)
# 0 "" 2
#NO_APP
.LBE9060:
.LBB9061:
.LBB9062:
	.loc 7 498 0
	movl	$64, %ecx
#APP
# 498 "src/clock.c" 1
	movw %cx, %ES
# 0 "" 2
#NO_APP
.LBB9067:
#APP
# 498 "src/clock.c" 1
	movb %ES:160, %al
# 0 "" 2
.LVL1496:
#NO_APP
.LBE9067:
	andl	$1, %eax
.LVL1497:
	jne	.L864
.LBB9066:
	.loc 7 502 0
#APP
# 502 "src/clock.c" 1
	movw %cx, %ES
# 0 "" 2
#NO_APP
	movl	$1, %edi
	movl	%edi, %ebx
#APP
# 502 "src/clock.c" 1
	movb %bl, %ES:160(%eax)
# 0 "" 2
#NO_APP
.LBE9066:
.LBB9064:
.LBB9065:
	.loc 7 503 0
	leal	-25(%ebp), %edi
	movl	-36(%ebp), %ebx
	sall	$16, %ebx
	movzwl	%di, %edi
	orl	%ebx, %edi
.LBE9065:
#APP
# 503 "src/clock.c" 1
	movw %cx, %ES
# 0 "" 2
# 503 "src/clock.c" 1
	movl %edi, %ES:152(%eax)
# 0 "" 2
#NO_APP
.LBE9064:
.LBB9063:
	.loc 7 504 0
#APP
# 504 "src/clock.c" 1
	movw %cx, %ES
# 0 "" 2
#NO_APP
.LBE9063:
.LBE9062:
.LBE9061:
	.loc 7 527 0
	sall	$16, %esi
.LVL1498:
	movzwl	-56(%ebp), %ebx
	orl	%ebx, %esi
.LBB9087:
.LBB9086:
.LBB9068:
	.loc 7 504 0
#APP
# 504 "src/clock.c" 1
	movl %esi, %ES:156(%eax)
# 0 "" 2
#NO_APP
.LBE9068:
.LBB9069:
.LBB9070:
.LBB9071:
.LBB9072:
	.loc 10 249 0
#APP
# 249 "src/biosvar.h" 1
	movw %cx, %ES
# 0 "" 2
#NO_APP
.LBB9073:
#APP
# 249 "src/biosvar.h" 1
	movw %ES:14(%eax), %bx
# 0 "" 2
.LVL1499:
#NO_APP
.LBE9073:
.LBE9072:
.LBE9071:
	.loc 7 473 0
#APP
# 473 "src/clock.c" 1
	movw %bx, %ES
# 0 "" 2
#NO_APP
.LBB9074:
#APP
# 473 "src/clock.c" 1
	movl %ES:298(%eax), %ecx
# 0 "" 2
.LVL1500:
#NO_APP
.LBE9074:
.LBB9075:
	.loc 7 474 0
	leal	1(%ecx), %esi
.LVL1501:
#APP
# 474 "src/clock.c" 1
	movw %bx, %ES
# 0 "" 2
# 474 "src/clock.c" 1
	movl %esi, %ES:298(%eax)
# 0 "" 2
#NO_APP
.LBE9075:
	.loc 7 475 0
	testl	%ecx, %ecx
	jne	.L881
.LBB9076:
.LBB9077:
.LBB9078:
	.loc 2 82 0
	movb	$-117, %bl
.LVL1502:
	movb	%bl, %al
#APP
# 82 "src/ioport.h" 1
	outb %al, $112
# 0 "" 2
#NO_APP
.LBE9078:
.LBE9077:
.LBB9079:
.LBB9080:
	.loc 2 92 0
#APP
# 92 "src/ioport.h" 1
	inb $113, %al
# 0 "" 2
#NO_APP
	movb	%al, %cl
.LVL1503:
.LBE9080:
.LBE9079:
.LBE9076:
.LBB9081:
.LBB9082:
.LBB9083:
	.loc 2 82 0
	movb	%bl, %al
#APP
# 82 "src/ioport.h" 1
	outb %al, $112
# 0 "" 2
#NO_APP
.LBE9083:
.LBE9082:
.LBB9084:
.LBB9085:
	orl	$64, %ecx
	movb	%cl, %al
#APP
# 82 "src/ioport.h" 1
	outb %al, $113
# 0 "" 2
#NO_APP
	jmp	.L881
.LVL1504:
.L864:
.LBE9085:
.LBE9084:
.LBE9081:
.LBE9070:
.LBE9069:
.LBE9086:
.LBE9087:
.LBB9088:
.LBB9089:
.LBB9090:
.LBB9091:
	.loc 14 90 0
	movb	$-125, 29(%edx)
	jmp	.L886
.LVL1505:
.L866:
.LBE9091:
.LBE9090:
.LBE9089:
.LBE9088:
.LBB9092:
.LBB9093:
	.loc 8 42 0
#APP
# 42 "src/util.h" 1
	sti ; hlt ; cli ; cld
# 0 "" 2
#NO_APP
.L881:
.LBE9093:
.LBE9092:
	.loc 7 533 0
	cmpb	$0, -25(%ebp)
	je	.L866
	jmp	.L862
.LVL1506:
.L841:
.LBE9059:
.LBE9058:
.LBB9094:
.LBB9095:
.LBB9096:
.LBB9097:
.LBB9098:
.LBB9099:
	.loc 2 92 0
#APP
# 92 "src/ioport.h" 1
	inb $146, %al
# 0 "" 2
#NO_APP
	movb	%al, -56(%ebp)
.LBE9099:
.LBE9098:
.LBB9100:
.LBB9101:
	.loc 2 82 0
	orl	$2, %eax
#APP
# 82 "src/ioport.h" 1
	outb %al, $146
# 0 "" 2
#NO_APP
.LBE9101:
.LBE9100:
.LBE9097:
.LBE9096:
	.loc 29 107 0
	movzwl	8(%edx), %esi
.LVL1507:
	.loc 29 109 0
	movw	2(%edx), %ax
.LVL1508:
.LBB9102:
	.loc 29 111 0
	movzwl	%ax, %edi
	sall	$4, %edi
#APP
# 111 "src/system.c" 1
	movw %ax, %ES
# 0 "" 2
#NO_APP
.LBB9103:
	addl	%esi, %edi
	movl	%edi, -36(%ebp)
	movl	$0, -32(%ebp)
	movl	-36(%ebp), %ecx
	movl	-32(%ebp), %ebx
	shldl	$16, %ecx, %ebx
	sall	$16, %ecx
	movl	%ecx, -36(%ebp)
	movl	%ebx, -32(%ebp)
	movl	-36(%ebp), %ecx
	movl	-32(%ebp), %ebx
	orl	$47, %ecx
	orb	$147, %bh
#APP
# 111 "src/system.c" 1
	movl %ecx, %ES:8(%esi)
# 0 "" 2
# 111 "src/system.c" 1
	movl %ebx, %ES:12(%esi)
# 0 "" 2
#NO_APP
.LBE9103:
.LBE9102:
.LBB9104:
	.loc 29 114 0
#APP
# 114 "src/system.c" 1
	movw %ax, %ES
# 0 "" 2
#NO_APP
.LBB9105:
	movl	$65535, %ecx
.LVL1509:
	movl	$39695, %ebx
.LVL1510:
#APP
# 114 "src/system.c" 1
	movl %ecx, %ES:32(%esi)
# 0 "" 2
# 114 "src/system.c" 1
	movl %ebx, %ES:36(%esi)
# 0 "" 2
#NO_APP
.LBE9105:
.LBE9104:
.LBB9106:
	.loc 29 117 0
#APP
# 117 "src/system.c" 1
	movw %SS, %cx
# 0 "" 2
.LVL1511:
#NO_APP
.LBE9106:
.LBB9107:
	.loc 29 118 0
	movzwl	%cx, %ecx
.LVL1512:
#APP
# 118 "src/system.c" 1
	movw %ax, %ES
# 0 "" 2
#NO_APP
.LBB9108:
	sall	$4, %ecx
.LVL1513:
	movl	%ecx, -36(%ebp)
	movl	$0, -32(%ebp)
	movl	-36(%ebp), %ecx
.LVL1514:
	movl	-32(%ebp), %ebx
.LVL1515:
	shldl	$16, %ecx, %ebx
	sall	$16, %ecx
	movl	%ecx, -36(%ebp)
	movl	%ebx, -32(%ebp)
	movl	-36(%ebp), %ecx
	movl	%ebx, %eax
.LVL1516:
	orl	$65535, %ecx
	orb	$147, %ah
#APP
# 118 "src/system.c" 1
	movl %ecx, %ES:40(%esi)
# 0 "" 2
# 118 "src/system.c" 1
	movl %eax, %ES:44(%esi)
# 0 "" 2
#NO_APP
.LBE9108:
.LBE9107:
	.loc 29 121 0
	movw	24(%edx), %cx
.LVL1517:
	.loc 29 122 0
#APP
# 122 "src/system.c" 1
	  lgdtw %es:(1<<3)(%si)
  lidtw %cs:pmode_IDT_info
  movl %cr0, %eax
  orl $(1<<0), %eax
  movl %eax, %cr0
  ljmpw $(4<<3), $1f
1:movw $(2<<3), %ax
  movw %ax, %ds
  movw $(3<<3), %ax
  movw %ax, %es
  xorw %si, %si
  xorw %di, %di
  rep movsw
  movw $(5<<3), %ax
  movw %ax, %ds
  movw %ax, %es
  movl %cr0, %eax
  andl $~(1<<0), %eax
  movl %eax, %cr0
  ljmpw $0xf000, $2f
2:lidtw %cs:rmode_IDT_info
  movw %ss, %ax
  movw %ax, %ds

# 0 "" 2
#NO_APP
.LBB9109:
.LBB9110:
.LBB9111:
.LBB9112:
	.loc 2 92 0
#APP
# 92 "src/ioport.h" 1
	inb $146, %al
# 0 "" 2
.LVL1518:
#NO_APP
.LBE9112:
.LBE9111:
	.loc 29 21 0
	testb	$2, -56(%ebp)
	jne	.L890
.L867:
	.loc 29 24 0
	andl	$-3, %eax
.LVL1519:
	jmp	.L888
.LVL1520:
.L842:
.LBE9110:
.LBE9109:
.LBE9095:
.LBE9094:
.LBB9113:
.LBB9114:
.LBB9115:
	.loc 29 177 0
#APP
# 177 "src/system.c" 1
	movl %CS:RamSize, %eax
# 0 "" 2
.LVL1521:
#NO_APP
.LBE9115:
	.loc 29 181 0
	cmpl	$67108864, %eax
	jbe	.L869
	.loc 29 182 0
	movw	$-1024, 28(%edx)
	jmp	.L862
.L869:
	.loc 29 184 0
	subl	$1048576, %eax
.LVL1522:
	shrl	$10, %eax
	movw	%ax, 28(%edx)
	jmp	.L862
.L900:
.LBE9114:
.LBE9113:
.LBB9116:
.LBB9117:
.LBB9118:
.LBB9119:
.LBB9120:
.LBB9121:
	.loc 2 92 0
#APP
# 92 "src/ioport.h" 1
	inb $146, %al
# 0 "" 2
#NO_APP
.LBE9121:
.LBE9120:
.LBB9122:
.LBB9123:
	.loc 2 82 0
	orl	$2, %eax
#APP
# 82 "src/ioport.h" 1
	outb %al, $146
# 0 "" 2
#NO_APP
.LBE9123:
.LBE9122:
.LBE9119:
.LBE9118:
.LBB9124:
.LBB9125:
.LBB9126:
	.loc 2 82 0
	movb	$17, %al
#APP
# 82 "src/ioport.h" 1
	outb %al, $32
# 0 "" 2
#NO_APP
.LBE9126:
.LBE9125:
.LBB9127:
.LBB9128:
#APP
# 82 "src/ioport.h" 1
	outb %al, $160
# 0 "" 2
#NO_APP
.LBE9128:
.LBE9127:
.LBB9129:
.LBB9130:
	movb	16(%edx), %al
#APP
# 82 "src/ioport.h" 1
	outb %al, $33
# 0 "" 2
#NO_APP
.LBE9130:
.LBE9129:
.LBB9131:
.LBB9132:
	movb	17(%edx), %al
#APP
# 82 "src/ioport.h" 1
	outb %al, $161
# 0 "" 2
#NO_APP
.LBE9132:
.LBE9131:
.LBB9133:
.LBB9134:
	movb	$4, %al
#APP
# 82 "src/ioport.h" 1
	outb %al, $33
# 0 "" 2
#NO_APP
.LBE9134:
.LBE9133:
.LBB9135:
.LBB9136:
	movb	$2, %al
#APP
# 82 "src/ioport.h" 1
	outb %al, $161
# 0 "" 2
#NO_APP
.LBE9136:
.LBE9135:
.LBB9137:
.LBB9138:
	movb	$1, %al
#APP
# 82 "src/ioport.h" 1
	outb %al, $33
# 0 "" 2
#NO_APP
.LBE9138:
.LBE9137:
.LBB9139:
.LBB9140:
#APP
# 82 "src/ioport.h" 1
	outb %al, $161
# 0 "" 2
#NO_APP
.LBE9140:
.LBE9139:
.LBB9141:
.LBB9142:
	movb	$-5, %al
#APP
# 82 "src/ioport.h" 1
	outb %al, $33
# 0 "" 2
#NO_APP
.LBE9142:
.LBE9141:
.LBB9143:
.LBB9144:
	movb	$-1, %al
#APP
# 82 "src/ioport.h" 1
	outb %al, $161
# 0 "" 2
#NO_APP
.LBE9144:
.LBE9143:
.LBE9124:
	.loc 29 196 0
	movzwl	8(%edx), %esi
.LVL1523:
.LBB9145:
	.loc 29 198 0
#APP
# 198 "src/system.c" 1
	movw 2(%edx), %ES
# 0 "" 2
#NO_APP
.LBB9146:
	movl	$65535, %ecx
.LVL1524:
	movl	$39695, %ebx
.LVL1525:
#APP
# 198 "src/system.c" 1
	movl %ecx, %ES:56(%esi)
# 0 "" 2
# 198 "src/system.c" 1
	movl %ebx, %ES:60(%esi)
# 0 "" 2
#NO_APP
.LBE9146:
.LBE9145:
	.loc 29 201 0
	movw	$24, (%edx)
	.loc 29 202 0
	movw	$32, 2(%edx)
	.loc 29 203 0
	movw	$48, 34(%edx)
.LBB9147:
.LBB9148:
	.loc 14 77 0
	movb	$0, 29(%edx)
.LBB9149:
.LBB9150:
	.loc 14 62 0
	andw	$-2, 36(%edx)
.LBE9150:
.LBE9149:
.LBE9148:
.LBE9147:
	.loc 29 207 0
#APP
# 207 "src/system.c" 1
	  lgdtw %es:(1<<3)(%si)
  lidtw %es:(2<<3)(%si)
  movl %cr0, %eax
  orl $(1<<0), %eax
  movl %eax, %cr0
  ljmpw $(7<<3), $1f
1:movw $(5<<3), %ax
  movw %ax, %ds
  movw %ax, %ss

# 0 "" 2
#NO_APP
.LBE9117:
.LBE9116:
	.loc 29 356 0
	jmp	.L880
.LVL1526:
.L901:
.LBB9151:
.LBB9152:
	.loc 29 251 0
	movw	$-4096, 2(%edx)
	.loc 29 252 0
	movl	$BIOS_CONFIG_TABLE, %eax
	movw	%ax, 16(%edx)
	jmp	.L889
.L846:
.LBE9152:
.LBE9151:
.LBB9153:
.LBB9154:
.LBB9155:
.LBB9156:
	.loc 10 249 0
	movl	$64, %eax
#APP
# 249 "src/biosvar.h" 1
	movw %ax, %ES
# 0 "" 2
#NO_APP
.LBB9157:
#APP
# 249 "src/biosvar.h" 1
	movw %ES:14, %ax
# 0 "" 2
.LVL1527:
#NO_APP
.LBE9157:
.LBE9156:
.LBE9155:
	.loc 29 259 0
	movw	%ax, 2(%edx)
	jmp	.L862
.LVL1528:
.L847:
.LBE9154:
.LBE9153:
	.loc 29 361 0
	movl	%edx, %eax
	call	handle_15c2.1703
.LVL1529:
	jmp	.L880
.LVL1530:
.L902:
.LBB9158:
.LBB9159:
	.loc 29 328 0
	movb	28(%edx), %al
	cmpb	$1, %al
	je	.L872
	cmpb	$32, %al
	jne	.L833
	jmp	.L905
.L872:
.LBB9160:
.LBB9161:
.LBB9162:
	.loc 29 273 0
#APP
# 273 "src/system.c" 1
	movl %CS:RamSize, %eax
# 0 "" 2
.LVL1531:
#NO_APP
.LBE9162:
	.loc 29 276 0
	cmpl	$16777216, %eax
	jbe	.L874
	.loc 29 278 0
	movw	$15360, 24(%edx)
	.loc 29 280 0
	subl	$16777216, %eax
.LVL1532:
	shrl	$16, %eax
	movw	%ax, 20(%edx)
	jmp	.L875
.LVL1533:
.L874:
	.loc 29 282 0
	subl	$1048576, %eax
.LVL1534:
	shrl	$10, %eax
	movw	%ax, 24(%edx)
	.loc 29 283 0
	movw	$0, 20(%edx)
.L875:
	.loc 29 287 0
	movw	24(%edx), %ax
	movw	%ax, 28(%edx)
	.loc 29 288 0
	movw	20(%edx), %ax
	movw	%ax, 16(%edx)
	jmp	.L862
.L905:
.LBE9161:
.LBE9160:
.LBB9163:
.LBB9164:
.LBB9165:
	.loc 29 300 0
#APP
# 300 "src/system.c" 1
	movl %CS:e820_count, %ebx
# 0 "" 2
#NO_APP
	movl	%ebx, -76(%ebp)
.LBE9165:
	.loc 29 301 0
	cmpl	$1397571920, 20(%edx)
	jne	.L833
	movzwl	16(%edx), %esi
	cmpl	%ebx, %esi
	jge	.L833
	cmpl	$19, 24(%edx)
	jbe	.L833
.LBB9166:
.LBB9167:
	.loc 10 296 0
#APP
# 296 "src/biosvar.h" 1
	movw %CS, -36(%ebp)
# 0 "" 2
#NO_APP
.LBE9167:
.LBE9166:
	.loc 29 307 0
	movzwl	4(%edx), %edi
.LBB9168:
.LBB9169:
	.loc 6 185 0
#APP
# 185 "src/util.c" 1
	movw 2(%edx), %ES
# 0 "" 2
	.loc 6 187 0
#NO_APP
	imull	$20, %esi, %esi
	addl	$e820_list, %esi
	movl	$20, %ecx
.LVL1535:
	movl	-36(%ebp), %ebx
#APP
# 187 "src/util.c" 1
	movw %ds, %ax
movw %bx, %ds
rep movsb (%si),%es:(%di)
movw %ax, %ds
# 0 "" 2
.LVL1536:
#NO_APP
.LBE9169:
.LBE9168:
	.loc 29 310 0
	movzwl	16(%edx), %eax
	movl	-76(%ebp), %ebx
	decl	%ebx
	cmpl	%ebx, %eax
	jne	.L878
	.loc 29 311 0
	movl	$0, 16(%edx)
	jmp	.L879
.L878:
	.loc 29 313 0
	incl	16(%edx)
.L879:
	.loc 29 314 0
	movl	$1397571920, 28(%edx)
	.loc 29 315 0
	movl	$20, 24(%edx)
	jmp	.L862
.LVL1537:
.L833:
.LBE9164:
.LBE9163:
.LBE9159:
.LBE9158:
.LBB9170:
.LBB9171:
.LBB9172:
.LBB9173:
.LBB9174:
.LBB9175:
	.loc 14 90 0
	movb	$-122, 29(%edx)
.LVL1538:
.L886:
.LBB9176:
.LBB9177:
	.loc 14 60 0
	orw	$1, 36(%edx)
	jmp	.L880
.LVL1539:
.L862:
.LBE9177:
.LBE9176:
.LBE9175:
.LBE9174:
.LBE9173:
.LBE9172:
.LBE9171:
.LBE9170:
.LBB9178:
.LBB9057:
.LBB9056:
.LBB9055:
.LBB9052:
.LBB9053:
.LBB9054:
	.loc 14 62 0
	andw	$-2, 36(%edx)
.LVL1540:
.L880:
.LBE9054:
.LBE9053:
.LBE9052:
.LBE9055:
.LBE9056:
.LBE9057:
.LBE9178:
	.loc 29 365 0
	addl	$76, %esp
	popl	%ebx
.LVL1541:
	popl	%esi
.LVL1542:
	popl	%edi
.LVL1543:
	leave
	leal	-8(%edi), %esp
	popl	%edi
	ret
	.cfi_endproc
.LFE2439:
	.size	handle_15, .-handle_15
	.section	.text.handle_16,"ax",@progbits
.globl handle_16
	.type	handle_16, @function
handle_16:
.LFB869:
	.loc 11 245 0
	.cfi_startproc
.LVL1544:
	pushl	%ebp
	.cfi_def_cfa_offset 8
	pushl	%edi
	.cfi_def_cfa_offset 12
	pushl	%esi
	.cfi_def_cfa_offset 16
	pushl	%ebx
	.cfi_def_cfa_offset 20
	subl	$8, %esp
	.cfi_def_cfa_offset 28
	movl	%eax, %ebx
	.cfi_offset 3, -20
	.cfi_offset 6, -16
	.cfi_offset 7, -12
	.cfi_offset 5, -8
.LBB9179:
.LBB9180:
	.loc 11 228 0
	movl	$64, %esi
#APP
# 228 "src/kbd.c" 1
	movw %si, %ES
# 0 "" 2
#NO_APP
.LBB9181:
#APP
# 228 "src/kbd.c" 1
	movb %ES:23, %al
# 0 "" 2
.LVL1545:
#NO_APP
.LBE9181:
	shrb	$4, %al
	andl	$7, %eax
	movb	%al, 7(%esp)
.LVL1546:
	.loc 11 229 0
#APP
# 229 "src/kbd.c" 1
	movw %si, %ES
# 0 "" 2
#NO_APP
.LBB9182:
#APP
# 229 "src/kbd.c" 1
	movb %ES:151, %dl
# 0 "" 2
#NO_APP
	movl	%edx, %edi
.LVL1547:
.LBE9182:
	.loc 11 231 0
	andl	$7, %edx
	cmpb	%dl, %al
	je	.L907
.LBB9183:
.LBB9184:
	.loc 28 303 0
	leal	7(%esp), %ecx
	movl	$4333, %edx
	xorl	%eax, %eax
	call	ps2_command.42672
.LBE9184:
.LBE9183:
	.loc 11 235 0
	testl	%eax, %eax
.LVL1548:
	jne	.L907
	.loc 11 238 0
	movl	%edi, %edx
.LVL1549:
	andl	$-8, %edx
.LVL1550:
	orb	7(%esp), %dl
.LVL1551:
.LBB9185:
	.loc 11 239 0
#APP
# 239 "src/kbd.c" 1
	movw %si, %ES
# 0 "" 2
# 239 "src/kbd.c" 1
	movb %dl, %ES:151(%eax)
# 0 "" 2
#NO_APP
.L907:
.LBE9185:
.LBE9180:
.LBE9179:
	.loc 11 253 0
	movb	29(%ebx), %al
.LVL1552:
	cmpb	$10, %al
	je	.L914
	ja	.L920
	cmpb	$2, %al
	je	.L911
	ja	.L921
	testb	%al, %al
	je	.L909
	decb	%al
	jne	.L927
	jmp	.L935
.L921:
	cmpb	$5, %al
	je	.L912
	cmpb	$9, %al
	jne	.L927
	jmp	.L936
.L920:
	cmpb	$18, %al
	je	.L917
	ja	.L922
	cmpb	$16, %al
	je	.L915
	cmpb	$17, %al
	jne	.L927
	jmp	.L937
.L922:
	cmpb	$111, %al
	je	.L918
	cmpb	$-110, %al
	jne	.L927
	jmp	.L938
.L909:
.LBB9186:
.LBB9187:
	.loc 11 116 0
	xorl	%ecx, %ecx
	jmp	.L929
.L935:
.LBE9187:
.LBE9186:
.LBB9188:
.LBB9189:
	.loc 11 123 0
	xorl	%ecx, %ecx
.L930:
	xorl	%edx, %edx
.LVL1553:
.L928:
	movl	%ebx, %eax
	call	dequeue_key.26840
.LBE9189:
.LBE9188:
	.loc 11 255 0
	jmp	.L927
.LVL1554:
.L911:
.LBB9190:
.LBB9191:
.LBB9192:
.LBB9193:
.LBB9194:
.LBB9195:
	.loc 6 72 0
#APP
# 72 "src/util.c" 1
	sti
nop
rep ; nop
cli
cld

# 0 "" 2
#NO_APP
.LBE9195:
.LBE9194:
.LBE9193:
.LBE9192:
	.loc 11 131 0
	movl	$64, %eax
#APP
# 131 "src/kbd.c" 1
	movw %ax, %ES
# 0 "" 2
#NO_APP
.LBB9196:
#APP
# 131 "src/kbd.c" 1
	movb %ES:23, %al
# 0 "" 2
.LVL1555:
#NO_APP
.LBE9196:
	movb	%al, 28(%ebx)
.LBE9191:
.LBE9190:
	.loc 11 256 0
	jmp	.L927
.LVL1556:
.L912:
.LBB9197:
.LBB9198:
	.loc 11 138 0
	movzbl	24(%ebx), %edi
.LVL1557:
	movzbl	25(%ebx), %esi
.LBB9199:
.LBB9200:
	.loc 11 53 0
	movl	$64, %edx
.LVL1558:
#APP
# 53 "src/kbd.c" 1
	movw %dx, %ES
# 0 "" 2
#NO_APP
.LBB9201:
#APP
# 53 "src/kbd.c" 1
	movw %ES:128, %ax
# 0 "" 2
.LVL1559:
#NO_APP
.LBE9201:
	.loc 11 54 0
#APP
# 54 "src/kbd.c" 1
	movw %dx, %ES
# 0 "" 2
#NO_APP
.LBB9202:
#APP
# 54 "src/kbd.c" 1
	movw %ES:130, %bp
# 0 "" 2
.LVL1560:
#NO_APP
.LBE9202:
	.loc 11 56 0
#APP
# 56 "src/kbd.c" 1
	movw %dx, %ES
# 0 "" 2
#NO_APP
.LBB9203:
#APP
# 56 "src/kbd.c" 1
	movw %ES:26, %cx
# 0 "" 2
#NO_APP
	movw	%cx, 2(%esp)
.LBE9203:
	.loc 11 57 0
#APP
# 57 "src/kbd.c" 1
	movw %dx, %ES
# 0 "" 2
#NO_APP
.LBB9204:
#APP
# 57 "src/kbd.c" 1
	movw %ES:28, %dx
# 0 "" 2
.LVL1561:
#NO_APP
.LBE9204:
	.loc 11 60 0
	leal	2(%edx), %ecx
.LVL1562:
	.loc 11 61 0
	cmpw	%bp, %cx
	jae	.L923
	movl	%ecx, %eax
.L923:
	.loc 11 64 0
	xorl	%ecx, %ecx
.LVL1563:
	cmpw	2(%esp), %ax
	je	.L925
.LBB9205:
	.loc 11 67 0
	movl	$64, %ebp
.LVL1564:
#APP
# 67 "src/kbd.c" 1
	movw %bp, %ES
# 0 "" 2
#NO_APP
	movzwl	%dx, %edx
.LVL1565:
	movl	%edi, %ecx
#APP
# 67 "src/kbd.c" 1
	movb %cl, %ES:(%edx)
# 0 "" 2
#NO_APP
.LBE9205:
.LBB9206:
	.loc 11 68 0
#APP
# 68 "src/kbd.c" 1
	movw %bp, %ES
# 0 "" 2
#NO_APP
	movl	%esi, %ecx
#APP
# 68 "src/kbd.c" 1
	movb %cl, %ES:1(%edx)
# 0 "" 2
#NO_APP
.LBE9206:
.LBB9207:
	.loc 11 69 0
#APP
# 69 "src/kbd.c" 1
	movw %bp, %ES
# 0 "" 2
# 69 "src/kbd.c" 1
	movw %ax, %ES:28
# 0 "" 2
#NO_APP
	movb	$1, %cl
.LVL1566:
.L925:
.LBE9207:
.LBE9200:
.LBE9199:
	.loc 11 138 0
	xorl	$1, %ecx
	movb	%cl, 28(%ebx)
.LBE9198:
.LBE9197:
	.loc 11 257 0
	jmp	.L927
.LVL1567:
.L936:
.LBB9208:
.LBB9209:
	.loc 11 155 0
	movb	$48, 28(%ebx)
.LBE9209:
.LBE9208:
	.loc 11 258 0
	jmp	.L927
.L914:
.LBB9210:
.LBB9211:
.LBB9212:
.LBB9213:
	.loc 28 303 0
	leal	5(%esp), %ecx
	movl	$754, %edx
.LVL1568:
	xorl	%eax, %eax
	call	ps2_command.42672
.LBE9213:
.LBE9212:
	.loc 11 164 0
	testl	%eax, %eax
.LVL1569:
	je	.L926
	.loc 11 165 0
	movw	$0, 16(%ebx)
	jmp	.L927
.L926:
	.loc 11 168 0
	movzbl	6(%esp), %edx
	sall	$8, %edx
	movzbl	5(%esp), %eax
.LVL1570:
	orl	%edx, %eax
	movw	%ax, 16(%ebx)
	jmp	.L927
.LVL1571:
.L915:
.LBE9211:
.LBE9210:
.LBB9214:
.LBB9215:
	.loc 11 175 0
	movl	$1, %ecx
.L929:
	movl	$1, %edx
.LVL1572:
	jmp	.L928
.LVL1573:
.L937:
.LBE9215:
.LBE9214:
.LBB9216:
.LBB9217:
	.loc 11 182 0
	movl	$1, %ecx
	jmp	.L930
.L917:
.LBE9217:
.LBE9216:
.LBB9218:
.LBB9219:
.LBB9220:
.LBB9221:
.LBB9222:
.LBB9223:
	.loc 6 72 0
#APP
# 72 "src/util.c" 1
	sti
nop
rep ; nop
cli
cld

# 0 "" 2
#NO_APP
.LBE9223:
.LBE9222:
.LBE9221:
.LBE9220:
	.loc 11 190 0
	movl	$64, %eax
#APP
# 190 "src/kbd.c" 1
	movw %ax, %ES
# 0 "" 2
#NO_APP
.LBB9224:
#APP
# 190 "src/kbd.c" 1
	movb %ES:23, %dl
# 0 "" 2
.LVL1574:
#NO_APP
.LBE9224:
	movb	%dl, 28(%ebx)
	.loc 11 191 0
#APP
# 191 "src/kbd.c" 1
	movw %ax, %ES
# 0 "" 2
#NO_APP
.LBB9225:
#APP
# 191 "src/kbd.c" 1
	movb %ES:24, %dl
# 0 "" 2
.LVL1575:
#NO_APP
.LBE9225:
	.loc 11 192 0
#APP
# 192 "src/kbd.c" 1
	movw %ax, %ES
# 0 "" 2
#NO_APP
.LBB9226:
#APP
# 192 "src/kbd.c" 1
	movb %ES:150, %al
# 0 "" 2
#NO_APP
.LBE9226:
	.loc 11 191 0
	andl	$12, %eax
	andl	$-13, %edx
	orl	%edx, %eax
	movb	%al, 29(%ebx)
.LBE9219:
.LBE9218:
	.loc 11 262 0
	jmp	.L927
.LVL1576:
.L938:
.LBB9227:
.LBB9228:
	.loc 11 209 0
	movb	$-128, 29(%ebx)
.LBE9228:
.LBE9227:
	.loc 11 263 0
	jmp	.L927
.L918:
.LBB9229:
.LBB9230:
	.loc 11 199 0
	cmpb	$8, 28(%ebx)
	jne	.L927
	.loc 11 201 0
	movb	$2, 29(%ebx)
.LVL1577:
.L927:
.LBE9230:
.LBE9229:
	.loc 11 268 0
	popl	%esi
	.cfi_def_cfa_offset 24
	popl	%edi
	.cfi_def_cfa_offset 20
.LVL1578:
	popl	%ebx
.LVL1579:
	popl	%esi
	popl	%edi
	popl	%ebp
.LVL1580:
	ret
	.cfi_endproc
.LFE869:
	.size	handle_16, .-handle_16
	.section	.rodata.str1.1
.LC15:
	.string	"ps2 mouse irq but no mouse data.\n"
	.section	.text.handle_74,"ax",@progbits
.globl handle_74
	.type	handle_74, @function
handle_74:
.LFB1341:
	.loc 28 327 0
	.cfi_startproc
.LBB9231:
.LBB9232:
	.loc 2 92 0
#APP
# 92 "src/ioport.h" 1
	inb $100, %al
# 0 "" 2
.LVL1581:
#NO_APP
.LBE9232:
.LBE9231:
	.loc 28 334 0
	andl	$33, %eax
.LVL1582:
	cmpl	$33, %eax
	je	.L940
	.loc 28 336 0
	pushl	$.LC15
	.cfi_def_cfa_offset 8
	.cfi_escape 0x2e,0x4
	call	__dprintf.1654
	popl	%eax
	.cfi_def_cfa_offset 4
	.loc 28 337 0
	jmp	.L941
.L940:
.LBB9233:
.LBB9234:
	.loc 2 92 0
#APP
# 92 "src/ioport.h" 1
	inb $96, %al
# 0 "" 2
.LVL1583:
#NO_APP
.LBE9234:
.LBE9233:
.LBB9235:
.LBB9236:
	.loc 10 249 0
	movl	$64, %edx
#APP
# 249 "src/biosvar.h" 1
	movw %dx, %ES
# 0 "" 2
#NO_APP
.LBB9237:
#APP
# 249 "src/biosvar.h" 1
	movw %ES:14, %dx
# 0 "" 2
.LVL1584:
#NO_APP
.LBE9237:
.LBE9236:
.LBE9235:
	.loc 28 341 0
#APP
# 341 "src/ps2port.c" 1
	movw %dx, %ES
# 0 "" 2
#NO_APP
.LBB9238:
#APP
# 341 "src/ps2port.c" 1
	movb %ES:289, %dl
# 0 "" 2
.LVL1585:
#NO_APP
.LBE9238:
	andb	$2, %dl
	je	.L941
	.loc 28 345 0
	movzbl	%al, %eax
.LVL1586:
	.cfi_escape 0x2e,0x0
	call	process_mouse.1709
.LVL1587:
.L941:
.LBB9239:
.LBB9240:
.LBB9241:
	.loc 2 82 0
	movb	$32, %al
.LVL1588:
#APP
# 82 "src/ioport.h" 1
	outb %al, $160
# 0 "" 2
#NO_APP
.LBE9241:
.LBE9240:
.LBB9242:
.LBB9243:
.LBB9244:
#APP
# 82 "src/ioport.h" 1
	outb %al, $32
# 0 "" 2
#NO_APP
.LBE9244:
.LBE9243:
.LBE9242:
.LBE9239:
	.loc 28 349 0
	ret
	.cfi_endproc
.LFE1341:
	.size	handle_74, .-handle_74
	.section	.rodata.str1.1
.LC16:
	.string	"ps2 keyboard irq but found mouse data?!\n"
	.section	.text.handle_09,"ax",@progbits
.globl handle_09
	.type	handle_09, @function
handle_09:
.LFB1342:
	.loc 28 354 0
	.cfi_startproc
.LBB9245:
.LBB9246:
	.loc 2 92 0
#APP
# 92 "src/ioport.h" 1
	inb $100, %al
# 0 "" 2
.LVL1589:
#NO_APP
.LBE9246:
.LBE9245:
	.loc 28 362 0
	movl	%eax, %edx
.LVL1590:
	andl	$32, %edx
	je	.L944
	.loc 28 363 0
	pushl	$.LC16
	.cfi_def_cfa_offset 8
	.cfi_escape 0x2e,0x4
	call	__dprintf.1654
	popl	%edx
	.cfi_def_cfa_offset 4
	.loc 28 364 0
	jmp	.L945
.L944:
.LBB9247:
.LBB9248:
	.loc 2 92 0
#APP
# 92 "src/ioport.h" 1
	inb $96, %al
# 0 "" 2
.LVL1591:
#NO_APP
.LBE9248:
.LBE9247:
.LBB9249:
.LBB9250:
	.loc 10 249 0
	movl	$64, %ecx
#APP
# 249 "src/biosvar.h" 1
	movw %cx, %ES
# 0 "" 2
#NO_APP
.LBB9251:
#APP
# 249 "src/biosvar.h" 1
	movw %ES:14(%edx), %cx
# 0 "" 2
.LVL1592:
#NO_APP
.LBE9251:
.LBE9250:
.LBE9249:
	.loc 28 368 0
#APP
# 368 "src/ps2port.c" 1
	movw %cx, %ES
# 0 "" 2
#NO_APP
.LBB9252:
#APP
# 368 "src/ps2port.c" 1
	movb %ES:289(%edx), %dl
# 0 "" 2
.LVL1593:
#NO_APP
.LBE9252:
	andb	$1, %dl
	je	.L945
	.loc 28 372 0
	movzbl	%al, %eax
.LVL1594:
	.cfi_escape 0x2e,0x0
	call	process_key.1705
.LVL1595:
.L945:
.LBB9253:
.LBB9254:
.LBB9255:
	.loc 2 82 0
	movb	$32, %al
.LVL1596:
#APP
# 82 "src/ioport.h" 1
	outb %al, $32
# 0 "" 2
#NO_APP
.LBE9255:
.LBE9254:
.LBE9253:
	.loc 28 376 0
	ret
	.cfi_endproc
.LFE1342:
	.size	handle_09, .-handle_09
	.section	.rodata.str1.1
.LC17:
	.string	"In resume (status=%d)\n"
.LC18:
	.string	"Unimplemented shutdown status: %02x\n"
	.section	.text.handle_resume,"ax",@progbits
.globl handle_resume
	.type	handle_resume, @function
handle_resume:
.LFB1472:
	.file 30 "src/resume.c"
	.loc 30 30 0
	.cfi_startproc
.LVL1597:
	pushl	%esi
	.cfi_def_cfa_offset 8
	pushl	%ebx
	.cfi_def_cfa_offset 12
	movb	%al, %bl
	.cfi_offset 3, -12
	.cfi_offset 6, -8
.LBB9256:
.LBB9257:
.LBB9258:
	.loc 2 82 0
	xorl	%edx, %edx
	movb	%dl, %al
.LVL1598:
#APP
# 82 "src/ioport.h" 1
	outb %al, $13
# 0 "" 2
#NO_APP
.LBE9258:
.LBE9257:
.LBB9259:
.LBB9260:
#APP
# 82 "src/ioport.h" 1
	outb %al, $218
# 0 "" 2
#NO_APP
.LBE9260:
.LBE9259:
.LBB9261:
.LBB9262:
	movb	$-64, %al
#APP
# 82 "src/ioport.h" 1
	outb %al, $214
# 0 "" 2
#NO_APP
.LBE9262:
.LBE9261:
.LBB9263:
.LBB9264:
	movb	%dl, %al
#APP
# 82 "src/ioport.h" 1
	outb %al, $212
# 0 "" 2
#NO_APP
.LBE9264:
.LBE9263:
.LBE9256:
	.loc 30 34 0
	movzbl	%bl, %esi
	pushl	%esi
	.cfi_def_cfa_offset 16
	pushl	$.LC17
	.cfi_def_cfa_offset 20
	.cfi_escape 0x2e,0x8
	call	__dprintf.1654
	popl	%ecx
	.cfi_def_cfa_offset 16
	popl	%eax
	.cfi_def_cfa_offset 12
	.loc 30 36 0
	cmpb	$12, %bl
	je	.L953
	ja	.L955
	cmpb	$5, %bl
	je	.L950
	ja	.L956
	testb	%bl, %bl
	je	.L949
	jmp	.L948
.L956:
	cmpb	$10, %bl
	je	.L951
	cmpb	$11, %bl
	jne	.L948
	jmp	.L959
.L955:
	cmpb	$-2, %bl
	jne	.L949
	.loc 30 40 0
	xorl	%eax, %eax
#APP
# 40 "src/resume.c" 1
	movw %ax, %ss
movl $4096, %esp
pushl $s3_resume
jmp transition32

# 0 "" 2
	.loc 30 47 0
#NO_APP
	jmp	.L948
.L949:
	.loc 30 55 0
	.cfi_escape 0x2e,0x0
	call	reset_vector
.L950:
.LBB9265:
.LBB9266:
.LBB9267:
	.loc 2 82 0
	movb	$32, %al
#APP
# 82 "src/ioport.h" 1
	outb %al, $160
# 0 "" 2
#NO_APP
.LBE9267:
.LBE9266:
.LBB9268:
.LBB9269:
.LBB9270:
#APP
# 82 "src/ioport.h" 1
	outb %al, $32
# 0 "" 2
#NO_APP
.L951:
.LBE9270:
.LBE9269:
.LBE9268:
.LBE9265:
	.loc 30 65 0
	movl	$64, %eax
#APP
# 65 "src/resume.c" 1
	movw %ax, %ds
ljmpw *103

# 0 "" 2
	.loc 30 70 0
#NO_APP
	jmp	.L948
.L959:
	.loc 30 74 0
	movl	$64, %eax
#APP
# 74 "src/resume.c" 1
	movw %ax, %ds
lssw 103, %sp
iretw

# 0 "" 2
	.loc 30 80 0
#NO_APP
	jmp	.L948
.L953:
	.loc 30 84 0
	movl	$64, %eax
#APP
# 84 "src/resume.c" 1
	movw %ax, %ds
lssw 103, %sp
lretw

# 0 "" 2
#NO_APP
.L948:
	.loc 30 93 0
	pushl	%esi
	.cfi_def_cfa_offset 16
	pushl	$.LC18
	.cfi_def_cfa_offset 20
	.cfi_escape 0x2e,0x8
	call	panic.1646
	.cfi_def_cfa_offset 12
	.cfi_endproc
.LFE1472:
	.size	handle_resume, .-handle_resume
	.section	.rodata.str1.1
.LC19:
	.string	"pnp call arg1=%x\n"
	.section	.text.handle_pnp,"ax",@progbits
.globl handle_pnp
	.type	handle_pnp, @function
handle_pnp:
.LFB1531:
	.file 31 "src/pnpbios.c"
	.loc 31 67 0
	.cfi_startproc
.LVL1599:
	pushl	%esi
	.cfi_def_cfa_offset 8
	pushl	%ebx
	.cfi_def_cfa_offset 12
	movl	%eax, %ebx
	.cfi_offset 3, -12
	.cfi_offset 6, -8
	.loc 31 71 0
	movw	(%eax), %si
.LVL1600:
	.loc 31 72 0
	movzwl	%si, %eax
.LVL1601:
	pushl	%eax
	.cfi_def_cfa_offset 16
	pushl	$.LC19
	.cfi_def_cfa_offset 20
	.cfi_escape 0x2e,0x8
	call	__dprintf.1654
.LVL1602:
	popl	%edx
	.cfi_def_cfa_offset 16
	popl	%ecx
	.cfi_def_cfa_offset 12
	.loc 31 74 0
	movl	$130, %eax
	cmpw	$96, %si
.LVL1603:
	jne	.L963
.LBB9271:
.LBB9272:
	.loc 31 53 0
	movzwl	2(%ebx), %eax
.LVL1604:
.LBB9273:
	.loc 31 55 0
#APP
# 55 "src/pnpbios.c" 1
	movw 4(%ebx), %ES
# 0 "" 2
#NO_APP
	movl	$257, %edx
#APP
# 55 "src/pnpbios.c" 1
	movw %dx, %ES:(%eax)
# 0 "" 2
#NO_APP
	xorl	%eax, %eax
.LVL1605:
.L963:
.LBE9273:
.LBE9272:
.LBE9271:
	.loc 31 78 0
	popl	%ebx
.LVL1606:
	popl	%esi
.LVL1607:
	ret
	.cfi_endproc
.LFE1531:
	.size	handle_pnp, .-handle_pnp
	.section	.rodata.str1.1
.LC20:
	.string	"WARNING - Unable to allocate resource at %s:%d!\n"
	.section	.text.configure_uhci.63731,"ax",@progbits
	.type	configure_uhci.63731, @function
configure_uhci.63731:
.LFB2045:
	.loc 19 119 0
	.cfi_startproc
.LVL1608:
	pushl	%ebp
	.cfi_def_cfa_offset 8
	pushl	%edi
	.cfi_def_cfa_offset 12
	pushl	%esi
	.cfi_def_cfa_offset 16
	pushl	%ebx
	.cfi_def_cfa_offset 20
	subl	$4, %esp
	.cfi_def_cfa_offset 24
	movl	%eax, %edi
	.cfi_offset 3, -20
	.cfi_offset 6, -16
	.cfi_offset 7, -12
	.cfi_offset 5, -8
.LVL1609:
.LBB9274:
.LBB9275:
	.loc 8 390 0
	pushl	$16
	.cfi_def_cfa_offset 28
	movl	$16, %ecx
	orl	$-1, %edx
	movl	$ZoneHigh, %eax
.LVL1610:
	.cfi_escape 0x2e,0x4
	call	pmm_malloc.1832
	.cfi_def_cfa_offset 24
	movl	%eax, %esi
.LBE9275:
.LBE9274:
.LBB9276:
.LBB9277:
	.loc 8 408 0
	pushl	$4096
	.cfi_def_cfa_offset 28
	movl	$4096, %ecx
	orl	$-1, %edx
	movl	$ZoneHigh, %eax
	call	pmm_malloc.1832
	.cfi_def_cfa_offset 24
	movl	%eax, %ebp
.LVL1611:
.LBE9277:
.LBE9276:
.LBB9278:
.LBB9279:
	.loc 8 390 0
	pushl	$16
	.cfi_def_cfa_offset 28
	movl	$8, %ecx
	orl	$-1, %edx
	movl	$ZoneHigh, %eax
	call	pmm_malloc.1832
	.cfi_def_cfa_offset 24
	movl	%eax, %ebx
.LBE9279:
.LBE9278:
.LBB9280:
.LBB9281:
	pushl	$16
	.cfi_def_cfa_offset 28
	movl	$8, %ecx
	orl	$-1, %edx
	movl	$ZoneHigh, %eax
	call	pmm_malloc.1832
	.cfi_def_cfa_offset 24
	movl	%eax, %edx
.LBE9281:
.LBE9280:
	.loc 19 127 0
	testl	%ebp, %ebp
	je	.L966
	testl	%esi, %esi
	je	.L966
	testl	%eax, %eax
	je	.L966
.LBB9282:
.LBB9284:
	.loc 8 414 0
	movl	$16, %eax
.LVL1612:
.LBE9284:
.LBE9282:
	.loc 19 127 0
	testl	%ebx, %ebx
	jne	.L974
.L966:
.LBB9286:
.LBB9287:
	.loc 3 500 0
	pushl	$128
	.cfi_def_cfa_offset 28
	pushl	$__func__.63738
	.cfi_def_cfa_offset 32
	pushl	$.LC20
	.cfi_def_cfa_offset 36
	movl	%edx, 12(%esp)
	.cfi_escape 0x2e,0xc
	call	__dprintf.1654
.LVL1613:
	addl	$12, %esp
	.cfi_def_cfa_offset 24
.LBE9287:
.LBE9286:
.LBB9288:
.LBB9289:
	.loc 8 414 0
	movl	%esi, %eax
	.cfi_escape 0x2e,0x0
	call	pmm_free.1834
.LBE9289:
.LBE9288:
.LBB9290:
.LBB9291:
	movl	%ebp, %eax
	call	pmm_free.1834
.LBE9291:
.LBE9290:
.LBB9292:
.LBB9293:
	movl	%ebx, %eax
	call	pmm_free.1834
.LBE9293:
.LBE9292:
.LBB9294:
.LBB9295:
	movl	(%esp), %edx
	movl	%edx, %eax
	call	pmm_free.1834
.LBE9295:
.LBE9294:
.LBB9296:
.LBB9283:
	movl	%edi, %eax
.LBE9283:
.LBE9296:
	.loc 19 179 0
	popl	%ebx
	.cfi_def_cfa_offset 20
	popl	%ebx
	popl	%esi
	popl	%edi
.LVL1614:
	popl	%ebp
.LVL1615:
.LBB9297:
.LBB9285:
	.loc 8 414 0
	jmp	pmm_free.1834
.LVL1616:
.L974:
.LBE9285:
.LBE9297:
.LBB9298:
.LBB9299:
	.loc 6 178 0
	decl	%eax
	movb	$0, (%esi,%eax)
	.loc 6 177 0
	testl	%eax, %eax
	jne	.L974
.LBE9299:
.LBE9298:
	.loc 19 134 0
	movl	$1, (%esi)
	.loc 19 135 0
	movl	$-2064535, 8(%esi)
	movb	$8, %al
.LVL1617:
.L970:
.LBB9300:
.LBB9301:
	.loc 6 178 0
	decl	%eax
.LVL1618:
	movb	$0, (%edx,%eax)
	.loc 6 177 0
	testl	%eax, %eax
	jne	.L970
.LBE9301:
.LBE9300:
	.loc 19 138 0
	movl	%esi, 4(%edx)
	.loc 19 139 0
	movl	$1, (%edx)
	movb	$8, %al
.LVL1619:
.L971:
.LBB9302:
.LBB9303:
	.loc 6 178 0
	decl	%eax
.LVL1620:
	movb	$0, (%ebx,%eax)
	.loc 6 177 0
	testl	%eax, %eax
	jne	.L971
.LBE9303:
.LBE9302:
	.loc 19 143 0
	movl	$1, 4(%ebx)
	.loc 19 144 0
	orl	$2, %edx
	movl	%edx, (%ebx)
	.loc 19 147 0
	movl	%ebx, %edx
	orl	$2, %edx
.L972:
	movl	%edx, (%ebp,%eax,4)
.LVL1621:
	.loc 19 146 0
	incl	%eax
.LVL1622:
	cmpl	$1024, %eax
	jne	.L972
	.loc 19 148 0
	movl	%ebp, 28(%edi)
	.loc 19 149 0
	movl	%ebx, 24(%edi)
	movl	%ebx, 20(%edi)
	.loc 19 150 0
	.loc 19 153 0
	movl	16(%edi), %ecx
.LBB9304:
.LBB9305:
	.loc 2 82 0
	leal	12(%ecx), %edx
	movb	$64, %al
.LVL1623:
#APP
# 82 "src/ioport.h" 1
	outb %al, %dx
# 0 "" 2
#NO_APP
.LBE9305:
.LBE9304:
.LBB9306:
.LBB9307:
	.loc 2 88 0
	leal	8(%ecx), %edx
	movl	%ebp, %eax
#APP
# 88 "src/ioport.h" 1
	outl %eax, %dx
# 0 "" 2
#NO_APP
.LBE9307:
.LBE9306:
.LBB9308:
.LBB9309:
	.loc 2 85 0
	leal	6(%ecx), %edx
	xorl	%eax, %eax
#APP
# 85 "src/ioport.h" 1
	outw %ax, %dx
# 0 "" 2
#NO_APP
.LBE9309:
.LBE9308:
.LBB9310:
.LBB9311:
	movb	$-63, %al
	movl	%ecx, %edx
#APP
# 85 "src/ioport.h" 1
	outw %ax, %dx
# 0 "" 2
#NO_APP
.LBE9311:
.LBE9310:
.LBB9312:
.LBB9313:
	.loc 19 85 0
	call	__force_link_error__only_in_32bit_flat
.LBE9313:
.LBE9312:
	.cfi_endproc
.LFE2045:
	.size	configure_uhci.63731, .-configure_uhci.63731
	.section	.rodata.str1.1
.LC21:
	.string	"wait_td error - status=%x\n"
	.section	.text.wait_td.64059,"ax",@progbits
	.type	wait_td.64059, @function
wait_td.64059:
.LFB2053:
	.loc 19 413 0
	.cfi_startproc
.LVL1624:
	pushl	%ebp
	.cfi_def_cfa_offset 8
	movl	%esp, %ebp
	.cfi_offset 5, -8
	.cfi_def_cfa_register 5
	pushl	%edi
	pushl	%esi
	pushl	%ebx
	subl	$16, %esp
	movl	%eax, %ecx
.LBB9314:
.LBB9315:
.LBB9316:
	.loc 7 135 0
#APP
# 135 "src/clock.c" 1
